(dp0
S'externally'
p1
F4.523860721095553
sS'lack'
p2
F4.409501269569157
sS'invent'
p3
F4.557048195685486
sS'codi'
p4
F4.362472373968064
sS'verseeing'
p5
F4.188375429958427
sS'hris'
p6
F4.38025780640128
sS'renown'
p7
F4.007775881601077
sS'lend'
p8
F4.538404132663247
sS'welfare'
p9
F4.237592076440919
sS'consultative'
p10
F4.564212016619121
sS'integrity'
p11
F4.103648227634018
sS'sund'
p12
F4.13209012806947
sS'retention'
p13
F4.373753718432104
sS'dayto'
p14
F4.169699920530153
sS'numeracy'
p15
F4.546076804574908
sS'everything'
p16
F4.4917393678061295
sS'leicester'
p17
F4.4281511460843666
sS'thursday'
p18
F4.640937791314921
sS'languages'
p19
F4.298835701681638
sS'german'
p20
F4.487493076924678
sS'solicit'
p21
F4.553808801858234
sS'stable'
p22
F4.055349102020978
sS'quarterly'
p23
F4.373753718432104
sS'worth'
p24
F4.0160528287785
sS'staffing'
p25
F4.2212250989767135
sS'town'
p26
F4.6325048530757345
sS'updated'
p27
F4.136341835154578
sS'agents'
p28
F4.665948026677986
sS'divisions'
p29
F4.524488664601273
sS'checkin'
p30
F4.244689338311681
sS'hardwork'
p31
F4.473666586746434
sS'diary'
p32
F4.2212250989767135
sS'updates'
p33
F4.1705813661579585
sS'cook'
p34
F4.447737025622752
sS'trouble'
p35
F4.074389740725828
sS'wick'
p36
F4.358740031592136
sS'minute'
p37
F4.249448985564669
sS'induct'
p38
F4.015675113948703
sS'entire'
p39
F4.376458615942804
sS'internally'
p40
F4.150934368774163
sS'impressive'
p41
F4.1856860513764556
sS'presented'
p42
F4.180774230829247
sS'induction'
p43
F4.06680941318527
sS'derby'
p44
F4.650866950903141
sS'proposals'
p45
F4.075191022819983
sS'elan'
p46
F4.097891632789681
sS'deals'
p47
F4.604897854831724
sS'assignments'
p48
F4.371595055964066
sS'sand'
p49
F4.386257278991506
sS'chartered'
p50
F4.439048873665114
sS'lisa'
p51
F4.071989739573827
sS'loads'
p52
F4.646599519106921
sS'dealers'
p53
F4.627618281397432
sS'inspection'
p54
F4.006278314866682
sS'competencies'
p55
F4.419065336845816
sS'logistics'
p56
F4.229608939420611
sS'prevent'
p57
F4.237120711831673
sS'charter'
p58
F4.2716399588731475
sS'regret'
p59
F4.352902922951913
sS'disciplines'
p60
F4.190172375635129
sS'erecruit'
p61
F4.416242868136076
sS'likely'
p62
F4.208779674455657
sS'timescales'
p63
F4.265803366428696
sS'voucher'
p64
F4.121539281090356
sS'rata'
p65
F4.360337901439432
sS'realistic'
p66
F4.564865825076539
sS'implemented'
p67
F4.565520061279136
sS'news'
p68
F4.665948026677986
sS'situated'
p69
F4.6137868022489705
sS'machines'
p70
F4.5576973355979264
sS'compliant'
p71
F4.65515267174864
sS'reconciliation'
p72
F4.047521273400732
sS'defence'
p73
F4.214752584471096
sS'combined'
p74
F4.5544558416737555
sS'accreditation'
p75
F4.675399205717152
sS'giving'
p76
F4.080818047313801
sS'learner'
p77
F4.624142435006079
sS'profitability'
p78
F4.140183888973588
sS'adhoc'
p79
F4.347099688517172
sS'uniform'
p80
F4.276039868195757
sS'bonuses'
p81
F4.246590479568705
sS'version'
p82
F4.028980765484989
sS'capital'
p83
F4.0036629575006994
sS'reply'
p84
F4.54351270060597
sS'firms'
p85
F4.337675534997902
sS'increasing'
p86
F4.008525506823587
sS'seeks'
p87
F4.3994733303830325
sS'multinational'
p88
F4.522606015786656
sS'edited'
p89
F4.553808801858234
sS'outgoing'
p90
F4.294334568800846
sS'dors'
p91
F4.160927934457316
sS'exchange'
p92
F4.194678917737019
sS'eligibility'
p93
F4.015675113948703
sS'incentives'
p94
F4.260000642216129
sS'never'
p95
F4.534589760587777
sS'rospa'
p96
F4.166181886998474
sS'confer'
p97
F4.136341835154578
sS'desired'
p98
F4.052602386540921
sS'leeds'
p99
F4.0600753810039265
sS'excess'
p100
F4.4880985870854735
sS'alone'
p101
F4.282429666294528
sS'supplying'
p102
F4.65515267174864
sS'sending'
p103
F4.316535278781038
sS'incoming'
p104
F4.513866884013218
sS'boast'
p105
F4.61653783562086
sS'suitably'
p106
F4.640232323913529
sS'cern'
p107
F4.364076223550039
sS'study'
p108
F4.115679071770262
sS'larger'
p109
F4.678325323386542
sS'precis'
p110
F4.62970960317743
sS'maximising'
p111
F4.496614453634467
sS'fulltime'
p112
F4.324217774953055
sS'arent'
p113
F4.213831349951776
sS'pick'
p114
F4.499060938035137
sS'berks'
p115
F4.300340592861058
sS'residents'
p116
F4.001426653922419
sS'studies'
p117
F4.390643250934761
sS'options'
p118
F4.194227348526366
sS'cause'
p119
F4.665224699340843
sS'appropriately'
p120
F4.547361326267264
sS'offs'
p121
F4.332996555835111
sS'regardless'
p122
F4.50520346349101
sS'figure'
p123
F4.4275808580734735
sS'deputy'
p124
F4.211531969771054
sS'situations'
p125
F4.532054904984589
sS'demands'
p126
F4.28985360536581
sS'logical'
p127
F4.014165679699849
sS'outcomes'
p128
F4.572745051657069
sS'unix'
p129
F4.60557882183114
sS'xpress'
p130
F4.4506499318478765
sS'oval'
p131
F4.17146358941765
sS'forefront'
p132
F4.649442449237755
sS'multitask'
p133
F4.563558635347918
sS'hotels'
p134
F4.518226903377297
sS'takes'
p135
F4.077197041546848
sS'distinct'
p136
F4.468901836814795
sS'governance'
p137
F4.5622531521337875
sS'properties'
p138
F4.585348866928436
sS'calculation'
p139
F4.61929645805994
sS'calm'
p140
F4.492955912968333
sS'automate'
p141
F4.326276447836591
sS'raft'
p142
F4.122799520702644
sS'ordinating'
p143
F4.1892734991701115
sS'metric'
p144
F4.613100224810396
sS'british'
p145
F4.374834799618476
sS'door'
p146
F4.32730737576295
sS'apprentices'
p147
F4.466527948459634
sS'afford'
p148
F4.51448858126669
sS'glas'
p149
F4.392292962609431
sS'curriculum'
p150
F4.307899207834985
sS'stone'
p151
F4.419630787808012
sS'warm'
p152
F4.424165942973404
sS'broke'
p153
F4.445412794477672
sS'arranging'
p154
F4.533955444042563
sS'rare'
p155
F4.571427528409829
sS'cases'
p156
F4.11109859322253
sS'effort'
p157
F4.2775108172229315
sS'charity'
p158
F4.169699920530153
sS'shoot'
p159
F4.06680941318527
sS'claims'
p160
F4.538404132663247
sS'unrivalled'
p161
F4.395048544402677
sS'surveyor'
p162
F4.339762129390855
sS'caseload'
p163
F4.638822880410295
sS'created'
p164
F4.141039687057484
sS'emerge'
p165
F4.617916195590982
sS'roof'
p166
F4.050645055714415
sS'remain'
p167
F4.090945741738569
sS'arrangements'
p168
F4.620678628286892
sS'norm'
p169
F4.37971418040257
sS'concepts'
p170
F4.274081962528699
sS'appraisal'
p171
F4.37862781419035
sS'disabilities'
p172
F4.336633868237045
sS'vary'
p173
F4.487493076924678
sS'proof'
p174
F4.198298831192154
sS'beautiful'
p175
F4.61104331630322
sS'prompt'
p176
F4.405589557400469
sS'stream'
p177
F4.015297541733532
sS'invoices'
p178
F4.224011909883893
sS'lock'
p179
F4.088505724261203
sS'recover'
p180
F4.3371545659837745
sS'agent'
p181
F4.021735738560394
sS'promotional'
p182
F4.590032716240863
sS'sphere'
p183
F4.072789100127983
sS'authorities'
p184
F4.590032716240863
sS'reviewing'
p185
F4.106538999830863
sS'council'
p186
F4.262414353260058
sS'sense'
p187
F4.350788757259578
sS'sought'
p188
F4.440202941883221
sS'kpis'
p189
F4.369979111631817
sS'simul'
p190
F4.643764648321074
sS'guarantee'
p191
F4.335593285416822
sS'hesitate'
p192
F4.0502540488668135
sS'educational'
p193
F4.274081962528699
sS'united'
p194
F4.523233171655441
sS'court'
p195
F4.222153173289268
sS'recovery'
p196
F4.47187714397845
sS'visitor'
p197
F4.674669012183431
sS'feature'
p198
F4.242317983157281
sS'hampshire'
p199
F4.261931144746186
sS'fortunate'
p200
F4.280951469425217
sS'motivating'
p201
F4.334034438647531
sS'till'
p202
F4.050645055714415
sS'sunday'
p203
F4.316535278781038
sS'vital'
p204
F4.296832696505201
sS'earnings'
p205
F4.197392623608615
sS'preferable'
p206
F4.292838682209263
sS'parttime'
p207
F4.604217351232819
sS'credential'
p208
F4.013411816113448
sS'fastpaced'
p209
F4.564865825076539
sS'utilise'
p210
F4.269203904075266
sS'communicating'
p211
F4.208321694140806
sS'mess'
p212
F4.491131649768587
sS'fran'
p213
F4.211072727512696
sS'autonomy'
p214
F4.586684872471179
sS'demanding'
p215
F4.1539653301765975
sS'reflect'
p216
F4.359804994419092
sS'designed'
p217
F4.370517469652896
sS'debt'
p218
F4.625531324118233
sS'tier'
p219
F4.202386958620991
sS'waste'
p220
F4.5188513180088865
sS'types'
p221
F4.341853086765329
sS'classroom'
p222
F4.32782323855489
sS'liability'
p223
F4.607624509554434
sS'organization'
p224
F4.364611412216814
sS'natural'
p225
F4.066412035870285
sS'onto'
p226
F4.3592723712373935
sS'bing'
p227
F4.611728482482816
sS'rosette'
p228
F4.646599519106921
sS'correspond'
p229
F4.492347455389476
sS'switch'
p230
F4.462977648872466
sS'cannot'
p231
F4.590703632066097
sS'green'
p232
F4.332996555835111
sS'ultimate'
p233
F4.658738190111237
sS'putting'
p234
F4.5840146439153004
sS'lined'
p235
F4.431579720871545
sS'talk'
p236
F4.196939827585484
sS'typical'
p237
F4.229608939420611
sS'cute'
p238
F4.0164306863307
sS'approx'
p239
F4.137194350125221
sS'serving'
p240
F4.315515390880293
sS'consent'
p241
F4.512624647828627
sS'compass'
p242
F4.313478730298489
sS'mainly'
p243
F4.421329061638204
sS'ledger'
p244
F4.307393518822944
sS'retailchoice'
p245
F4.54351270060597
sS'colo'
p246
F4.2878684930513895
sS'motions'
p247
F4.5480042063922665
sS'letters'
p248
F4.604897854831724
sS'cold'
p249
F4.257592743147589
sS'still'
p250
F4.270177613986668
sS'ticket'
p251
F4.505819796330243
sS'operative'
p252
F4.6144738514000085
sS'chemical'
p253
F4.574724597008207
sS'tending'
p254
F4.138474486847938
sS'arial'
p255
F4.675399205717152
sS'pharma'
p256
F4.058103382731269
sS'internationally'
p257
F4.2958326964218685
sS'interesting'
p258
F4.240424939525223
sS'multidisciplinary'
p259
F4.286877412692764
sS'troubles'
p260
F4.2504036395751195
sS'amazing'
p261
F4.358740031592136
sS'accredited'
p262
F4.574724597008207
sS'better'
p263
F4.1194424046667715
sS'absence'
p264
F4.1123457353505035
sS'wales'
p265
F4.303357186400484
sS'criminal'
p266
F4.081624498970411
sS'2010'
p267
F4.226806508814909
sS'2012'
p268
F4.0420780251242565
sS'focussed'
p269
F4.0792070924748725
sS'evening'
p270
F4.122799520702644
sS'junction'
p271
F4.084047763484185
sS'greater'
p272
F4.497836947674248
sS'roke'
p273
F4.401137685829645
sS'coding'
p274
F4.369441043284158
sS'disabilitie'
p275
F4.336633868237045
sS'vouchers'
p276
F4.355021567812199
sS'thea'
p277
F4.375375778803972
sS'band'
p278
F4.326276447836591
sS'simply'
p279
F4.663057851255753
sS'oxford'
p280
F4.162676186650845
sS'documented'
p281
F4.5786954824377
sS'hearing'
p282
F4.617226778121414
sS'hertfordshire'
p283
F4.393945400330519
sS'complain'
p284
F4.342376509964926
sS'literacy'
p285
F4.239479759870736
sS'ambridge'
p286
F4.210154875222467
sS'execute'
p287
F4.465935355849699
sS'equality'
p288
F4.348152320193315
sS'entrepreneur'
p289
F4.332996555835111
sS'undertaking'
p290
F4.021735738560394
sS'university'
p291
F4.113178028365673
sS'eact'
p292
F4.344472946791454
sS'backgrounds'
p293
F4.104473310189076
sS'identified'
p294
F4.330924016233138
sS'establishing'
p295
F4.485074696060397
sS'courses'
p296
F4.2537521239284
sS'coms'
p297
F4.4570883503429135
sS'turns'
p298
F4.484471013579038
sS'involvement'
p299
F4.366755035760065
sS'difficult'
p300
F4.443673159362228
sS'meal'
p301
F4.224011909883893
sS'flair'
p302
F4.640937791314921
sS'heavy'
p303
F4.4856787431944385
sS'broker'
p304
F4.551224821092309
sS'everyone'
p305
F4.446574234794062
sS'andis'
p306
F4.60285773171678
sS'michael'
p307
F4.121959184518738
sS'receipt'
p308
F4.679791599309069
sS'reduce'
p309
F4.5629056807050645
sS'hara'
p310
F4.245639457148001
sS'applicable'
p311
F4.194227348526366
sS'challenges'
p312
F4.122799520702644
sS'contributor'
p313
F4.186581707504399
sS'meta'
p314
F4.39615290674573
sS'sponsor'
p315
F4.410061336791862
sS'programmer'
p316
F4.502127484443116
sS'hart'
p317
F4.001799024062636
sS'scribe'
p318
F4.535224479745868
sS'atern'
p319
F4.195582668363376
sS'category'
p320
F4.676129932823105
sS'living'
p321
F4.106125520395574
sS'item'
p322
F4.482662149655012
sS'hourly'
p323
F4.6458900476333875
sS'since'
p324
F4.3114462092735675
sS'factory'
p325
F4.158746908510956
sS'publish'
p326
F4.42929269871975
sS'investigation'
p327
F4.284404000598245
sS'sustain'
p328
F4.009275694405656
sS'hill'
p329
F4.301345113287064
sS'kent'
p330
F4.224011909883893
sS'internet'
p331
F4.16793935669512
sS'thriving'
p332
F4.658738190111237
sS'electronics'
p333
F4.099943757458129
sS'receiving'
p334
F4.2958326964218685
sS'evaluation'
p335
F4.238063663339544
sS'integrated'
p336
F4.030896107959058
sS'foundation'
p337
F4.381345945790476
sS'drink'
p338
F4.633905413528765
sS'belief'
p339
F4.594064979768802
sS'easily'
p340
F4.60285773171678
sS'walk'
p341
F4.655868747683284
sS'payroll'
p342
F4.097891632789681
sS'managerial'
p343
F4.344472946791454
sS'poses'
p344
F4.6717535582233065
sS'attending'
p345
F4.248495242049359
sS'qualify'
p346
F4.089724988789409
sS'cari'
p347
F4.044407218723857
sS'pendant'
p348
F4.191522207111174
sS'organising'
p349
F4.176329779068823
sS'maths'
p350
F4.205121691410135
sS'span'
p351
F4.5840146439153004
sS'estimate'
p352
F4.613100224810396
sS'responding'
p353
F4.5263748644688855
sS'guest'
p354
F4.552515976855929
sS'pairs'
p355
F4.408382075272142
sS'interaction'
p356
F4.268231141352644
sS'launch'
p357
F4.207406362269118
sS'route'
p358
F4.448901170108126
sS'fabric'
p359
F4.631805307751648
sS'longterm'
p360
F4.2735930844940295
sS'priorities'
p361
F4.256631204611967
sS'honest'
p362
F4.548647500078009
sS'ordering'
p363
F4.656585336750135
sS'renew'
p364
F4.265318517934349
sS'qualifying'
p365
F4.510144795348845
sS'castle'
p366
F4.63110625144915
sS'undergo'
p367
F4.405589557400469
sS'facilitate'
p368
F4.136768001792181
sS'gloucester'
p369
F4.6290120098460354
sS'placing'
p370
F4.462977648872466
sS'saving'
p371
F4.62206271155283
sS'features'
p372
F4.502741923786564
sS'shortlisted'
p373
F4.582016641252627
sS'spoken'
p374
F4.571427528409829
sS'acca'
p375
F4.027451128475455
sS'approximate'
p376
F4.600821762231681
sS'facility'
p377
F4.337675534997902
sS'subcontractor'
p378
F4.544793930762019
sS'done'
p379
F4.3873519698506875
sS'another'
p380
F4.360337901439432
sS'apprenticeship'
p381
F4.5276343104791925
sS'sounds'
p382
F4.0362786661292125
sS'visions'
p383
F4.190622117041404
sS'ecommerce'
p384
F4.126167944940196
sS'specially'
p385
F4.38789976498901
sS'fence'
p386
F4.152665221651106
sS'introduction'
p387
F4.369441043284158
sS'engagement'
p388
F4.1282789864672695
sS'cements'
p389
F4.159182733316285
sS'returns'
p390
F4.54351270060597
sS'approximately'
p391
F4.639527353845558
sS'anyone'
p392
F4.5674853419640895
sS'gcse'
p393
F4.283910051464962
sS'station'
p394
F4.084047763484185
sS'master'
p395
F4.473069749963573
sS'statement'
p396
F4.007775881601077
sS'autonomous'
p397
F4.432152294606054
sS'draft'
p398
F4.647309494287613
sS'white'
p399
F4.542872700584125
sS'structures'
p400
F4.332996555835111
sS'speaking'
p401
F4.249448985564669
sS'listen'
p402
F4.267259323977812
sS'programs'
p403
F4.470090897596986
sS'season'
p404
F4.15657062908836
sS'norma'
p405
F4.5786954824377
sS'regulate'
p406
F4.585348866928436
sS'negotiating'
p407
F4.240897864575419
sS'solicitor'
p408
F4.61104331630322
sS'environmental'
p409
F4.049863194845813
sS'tracking'
p410
F4.445412794477672
sS'focusing'
p411
F4.458263438609739
sS'specialists'
p412
F4.034737833775057
sS'institution'
p413
F4.512624647828627
sS'updating'
p414
F4.134638982465532
sS'apprentice'
p415
F4.145759712984145
sS'jquery'
p416
F4.278001614778796
sS'kind'
p417
F4.667396252854351
sS'guild'
p418
F4.374834799618476
sS'unfortunately'
p419
F4.309417811012175
sS'grammer'
p420
F4.498448755585653
sS'rival'
p421
F4.239479759870736
sS'instruction'
p422
F4.123640563645408
sS'imply'
p423
F4.660895688251258
sS'aims'
p424
F4.0145428247165755
sS'servicing'
p425
F4.382980378189191
sS'merch'
p426
F4.381890459825166
sS'determined'
p427
F4.485074696060397
sS'exclusive'
p428
F4.133363743185379
sS'risks'
p429
F4.0925757339494995
sS'outcome'
p430
F4.234767215805364
sS'treated'
p431
F4.6332048881060715
sS'acquisition'
p432
F4.113178028365673
sS'enhancement'
p433
F4.5622531521337875
sS'gathering'
p434
F4.645181079152787
sS'fashion'
p435
F4.129124652479613
sS'erecruitment'
p436
F4.586684872471179
sS'urgently'
p437
F4.043241943781357
sS'voices'
p438
F4.212910963324447
sS'guarding'
p439
F4.157875828316503
sS'substantial'
p440
F4.2504036395751195
sS'childcare'
p441
F4.282922884553601
sS'advising'
p442
F4.1657430017599175
sS'commissioning'
p443
F4.36087109260109
sS'seen'
p444
F4.580022622645763
sS'dementia'
p445
F4.246114855302902
sS'clearly'
p446
F4.098711977380395
sS'vulnerable'
p447
F4.626922144926576
sS'invite'
p448
F4.631805307751648
sS'nott'
p449
F4.265803366428696
sS'nights'
p450
F4.106538999830863
sS'outbound'
p451
F4.425302952760479
sS'pupils'
p452
F4.120700002820361
sS'fastpace'
p453
F4.5622531521337875
sS'scotland'
p454
F4.196939827585484
sS'shore'
p455
F4.595412688867669
sS'purchasing'
p456
F4.341329937394255
sS'predominantly'
p457
F4.542872700584125
sS'oriented'
p458
F4.302853788453785
sS'instance'
p459
F4.19332482138929
sS'emphasis'
p460
F4.328855763169079
sS'luxury'
p461
F4.452401757113408
sS'esourcing'
p462
F4.041690353089939
sS'effectiveness'
p463
F4.4281511460843666
sS'competence'
p464
F4.648019973891213
sS'analysts'
p465
F4.419065336845816
sS'beyond'
p466
F4.608307336484344
sS'departmental'
p467
F4.5045875102839785
sS'normal'
p468
F4.6290120098460354
sS'quote'
p469
F4.179438819992019
sS'price'
p470
F4.132939024555084
sS'chart'
p471
F4.10943815282443
sS'elds'
p472
F4.5786954824377
sS'react'
p473
F4.353961684300155
sS'mace'
p474
F4.245639457148001
sS'visa'
p475
F4.465935355849699
sS'eight'
p476
F4.295333071130436
sS'sheets'
p477
F4.252315686046745
sS'termination'
p478
F4.33040655179727
sS'phase'
p479
F4.205121691410135
sS'staffin'
p480
F4.218446032806448
sS'approved'
p481
F4.624142435006079
sS'promotions'
p482
F4.560949370984304
sS'cima'
p483
F4.3555519311234905
sS'quotations'
p484
F4.637415420642415
sS'grams'
p485
F4.186133779165443
sS'inds'
p486
F4.669572532276947
sS'average'
p487
F4.215213520178727
sS'gather'
p488
F4.20329770549633
sS'harte'
p489
F4.257592743147589
sS'pipe'
p490
F4.218908674498715
sS'hertford'
p491
F4.3656826495983125
sS'points'
p492
F4.377000474530974
sS'patio'
p493
F4.136341835154578
sS'ordination'
p494
F4.102000102003429
sS'channels'
p495
F4.350260913489075
sS'applied'
p496
F4.673210222719771
sS'atmosphere'
p497
F4.339762129390855
sS'nottingham'
p498
F4.322676546803121
sS'eston'
p499
F4.5415939280313475
sS'certification'
p500
F4.0775987286380095
sS'30pm'
p501
F4.305877984307051
sS'text'
p502
F4.606942148559004
sS'advisors'
p503
F4.38080172808997
sS'dependant'
p504
F4.194678917737019
sS'representatives'
p505
F4.51448858126669
sS'bright'
p506
F4.064824103817681
sS'session'
p507
F4.408382075272142
sS'complaints'
p508
F4.4506499318478765
sS'entity'
p509
F4.476057502410208
sS'quota'
p510
F4.432725196369074
sS'recording'
p511
F4.6137868022489705
sS'feat'
p512
F4.197845624748865
sS'networks'
p513
F4.104060683816396
sS'upgrade'
p514
F4.5707694171652795
sS'tire'
p515
F4.054171014313548
sS'discounts'
p516
F4.538404132663247
sS'menu'
p517
F4.474263779956181
sS'transact'
p518
F4.094208387373385
sS'credited'
p519
F4.5674853419640895
sS'rics'
p520
F4.3371545659837745
sS'bust'
p521
F4.076394151098258
sS'mens'
p522
F4.236649569302346
sS'earner'
p523
F4.235707949647084
sS'wood'
p524
F4.518226903377297
sS'black'
p525
F4.54351270060597
sS'mica'
p526
F4.284404000598245
sS'rich'
p527
F4.331441748577087
sS'equivalents'
p528
F4.041302831286988
sS'employed'
p529
F4.423030224509477
sS'rice'
p530
F4.073189020149309
sS'indepth'
p531
F4.440780475829392
sS'hines'
p532
F4.431007474790121
sS'dominant'
p533
F4.4856787431944385
sS'correctly'
p534
F4.678325323386542
sS'permission'
p535
F4.461207214653753
sS'beau'
p536
F4.29134502995248
sS'express'
p537
F4.496003766592587
sS'leisure'
p538
F4.081624498970411
sS'employers'
p539
F4.262897795377282
sS'tailor'
p540
F4.002544180579977
sS'fastest'
p541
F4.417935393222768
sS'coordinating'
p542
F4.192873863095289
sS'pipeline'
p543
F4.501513422403557
sS'conjunction'
p544
F4.195130690954552
sS'comply'
p545
F4.05495625188825
sS'secondary'
p546
F4.281936691179787
sS'salestarget'
p547
F4.633905413528765
sS'places'
p548
F4.5629056807050645
sS'countries'
p549
F4.172346591682528
sS'summary'
p550
F4.2716399588731475
sS'safeguarding'
p551
F4.211531969771054
sS'interim'
p552
F4.492347455389476
sS'common'
p553
F4.590032716240863
sS'logistic'
p554
F4.134638982465532
sS'release'
p555
F4.16793935669512
sS'experiences'
p556
F4.367828573168589
sS'restaurants'
p557
F4.334553784283717
sS'questions'
p558
F4.433871985485581
sS'fair'
p559
F4.304868902485805
sS'intelligence'
p560
F4.301847752151629
sS'mysql'
p561
F4.531422193796129
sS'niche'
p562
F4.419630787808012
sS'analytics'
p563
F4.4518174743039145
sS'college'
p564
F4.598789929497454
sS'migration'
p565
F4.231013105342877
sS'scripting'
p566
F4.652293484668594
sS'audits'
p567
F4.0889119806145455
sS'concern'
p568
F4.502127484443116
sS'repairs'
p569
F4.436744725180264
sS'nationwide'
p570
F4.001799024062636
sS'lots'
p571
F4.231950312534251
sS'away'
p572
F4.255190628132344
sS'familiarity'
p573
F4.54351270060597
sS'thurs'
p574
F4.422462848607731
sS'continually'
p575
F4.161364711053035
sS'daytoday'
p576
F4.1856860513764556
sS'unable'
p577
F4.028598136821434
sS'identification'
p578
F4.531422193796129
sS'sable'
p579
F4.55510330042088
sS'routine'
p580
F4.513245573027093
sS'assistants'
p581
F4.3237037682596515
sS'numerous'
p582
F4.604217351232819
sS'screen'
p583
F4.282922884553601
sS'thrive'
p584
F4.217521391039229
sS'accountabilities'
p585
F4.102411878826213
sS'notice'
p586
F4.005156609757482
sS'extend'
p587
F4.152665221651106
sS'targeted'
p588
F4.512004107939028
sS'garde'
p589
F4.091760405734744
sS'sole'
p590
F4.401137685829645
sS'dome'
p591
F4.452401757113408
sS'supports'
p592
F4.552515976855929
sS'uptodate'
p593
F4.479054208278813
sS'incident'
p594
F4.357144710860276
sS'mentoring'
p595
F4.1496381923127155
sS'ooms'
p596
F4.151366801213333
sS'correspondence'
p597
F4.600144025845184
sS'approval'
p598
F4.3206252640325635
sS'configuration'
p599
F4.040915459599014
sS'embed'
p600
F4.421895794438865
sS'thank'
p601
F4.1325144862341245
sS'planner'
p602
F4.559647287467006
sS'missions'
p603
F4.592719084545446
sS'potentially'
p604
F4.477255107343766
sS'thos'
p605
F4.667396252854351
sS'rams'
p606
F4.140183888973588
sS'enabling'
p607
F4.422462848607731
sS'families'
p608
F4.379170849772524
sS'supplies'
p609
F4.617226778121414
sS'utilising'
p610
F4.443093952858923
sS'nima'
p611
F4.540955154454853
sS'collection'
p612
F4.102823825279001
sS'awards'
p613
F4.382980378189191
sS'rivalled'
p614
F4.388447860371325
sS'approve'
p615
F4.423030224509477
sS'asked'
p616
F4.1160965211605856
sS'duty'
p617
F4.269690640517098
sS'among'
p618
F4.61929645805994
sS'forecasting'
p619
F4.109023473158525
sS'ofsted'
p620
F4.673210222719771
sS'tone'
p621
F4.285392631425185
sS'timescale'
p622
F4.07559190476562
sS'wall'
p623
F4.177217090573357
sS'overview'
p624
F4.413428343339766
sS'hardworking'
p625
F4.4880985870854735
sS'venues'
p626
F4.6096743906958775
sS'refurbish'
p627
F4.534589760587777
sS'packaging'
p628
F4.676861194281652
sS'vend'
p629
F4.0958437107141155
sS'hygiene'
p630
F4.27506043618798
sS'regulated'
p631
F4.608307336484344
sS'rapport'
p632
F4.357144710860276
sS'linux'
p633
F4.014165679699849
sS'kings'
p634
F4.181219764363014
sS'allocated'
p635
F4.553162180432535
sS'volumes'
p636
F4.601499958256319
sS'panel'
p637
F4.483264740815157
sS'hams'
p638
F4.375917050806361
sS'caring'
p639
F4.1492065065732255
sS'quit'
p640
F4.4518174743039145
sS'workplace'
p641
F4.520726904679382
sS'raise'
p642
F4.0889119806145455
sS'carer'
p643
F4.544793930762019
sS'marc'
p644
F4.460028664134309
sS'patch'
p645
F4.641643756751936
sS'whos'
p646
F4.6681211532123
sS'mart'
p647
F4.006652496349065
sS'secret'
p648
F4.305373316115668
sS'agreements'
p649
F4.3775426268890625
sS'tina'
p650
F4.027069084535756
sS'territory'
p651
F4.243740121344349
sS'peaking'
p652
F4.248495242049359
sS'todate'
p653
F4.465935355849699
sS'shortlist'
p654
F4.2973330717971026
sS'diversity'
p655
F4.260965427626227
sS'easy'
p656
F4.413990614931752
sS'bedded'
p657
F4.367291660404013
sS'buck'
p658
F4.548647500078009
sS'fire'
p659
F4.0600753810039265
sS'formed'
p660
F4.164865808721213
sS'modelling'
p661
F4.018322118708469
sS'catering'
p662
F4.1892734991701115
sS'buyin'
p663
F4.571427528409829
sS'adaptable'
p664
F4.533321529599782
sS'lift'
p665
F4.673210222719771
sS'lives'
p666
F4.244214617201412
sS'minister'
p667
F4.386257278991506
sS'fmcg'
p668
F4.066412035870285
sS'boas'
p669
F4.613100224810396
sS'quotation'
p670
F4.499060938035137
sS'paying'
p671
F4.262414353260058
sS'commerce'
p672
F4.007401279611306
sS'referrals'
p673
F4.67248162523763
sS'importance'
p674
F4.667396252854351
sS'amend'
p675
F4.439048873665114
sS'align'
p676
F4.542233109900345
sS'professionally'
p677
F4.47785444808691
sS'frameworks'
p678
F4.431579720871545
sS'entrepreneurial'
p679
F4.4518174743039145
sS'specialises'
p680
F4.359804994419092
sS'leaning'
p681
F4.142753483535219
sS'situation'
p682
F4.087693706352191
sS'shops'
p683
F4.357676201704571
sS'ducting'
p684
F4.238063663339544
sS'margin'
p685
F4.59743766424744
sS'alike'
p686
F4.676861194281652
sS'rings'
p687
F4.679791599309069
sS'owed'
p688
F4.503356740897845
sS'seven'
p689
F4.665224699340843
sS'pound'
p690
F4.010777760027913
sS'earners'
p691
F4.588692233466411
sS'telecoms'
p692
F4.537767392749981
sS'coupled'
p693
F4.38789976498901
sS'brow'
p694
F4.507053602779171
sS'thur'
p695
F4.363006704731512
sS'expenses'
p696
F4.266288450115143
sS'middle'
p697
F4.006652496349065
sS'pharm'
p698
F4.056922047685437
sS'experts'
p699
F4.175443254188066
sS'vendor'
p700
F4.180328895707213
sS'parent'
p701
F4.252794269449036
sS'capture'
p702
F4.678325323386542
sS'borough'
p703
F4.034352996364111
sS'proto'
p704
F4.035893235405612
sS'things'
p705
F4.152232227489762
sS'subcontract'
p706
F4.282922884553601
sS'connection'
p707
F4.546076804574908
sS'unite'
p708
F4.47128137392806
sS'quant'
p709
F4.027069084535756
sS'unfortunate'
p710
F4.306382907317021
sS'units'
p711
F4.237592076440919
sS'tests'
p712
F4.638118902908501
sS'higher'
p713
F4.2475424072940875
sS'breakdown'
p714
F4.679791599309069
sS'meets'
p715
F4.460028664134309
sS'finish'
p716
F4.285392631425185
sS'practitioner'
p717
F4.29134502995248
sS'nest'
p718
F4.159182733316285
sS'permit'
p719
F4.5188513180088865
sS'negotiate'
p720
F4.346573787900266
sS'automation'
p721
F4.523860721095553
sS'edger'
p722
F4.300842726941405
sS'chris'
p723
F4.448318928461401
sS'cleaning'
p724
F4.159618748147697
sS'advertisement'
p725
F4.656585336750135
sS'robust'
p726
F4.196487236493803
sS'tradition'
p727
F4.677592990874866
sS'transaction'
p728
F4.1483436937500695
sS'kept'
p729
F4.375375778803972
sS'lunch'
p730
F4.464159682107021
sS'makes'
p731
F4.6325048530757345
sS'maker'
p732
F4.3972584900534795
sS'deliverable'
p733
F4.42644125681054
sS'patterns'
p734
F4.420762649841696
sS'accountable'
p735
F4.359804994419092
sS'machinery'
p736
F4.326791778948228
sS'qualities'
p737
F4.256150781830687
sS'estate'
p738
F4.210613696060982
sS'amps'
p739
F4.1535317728318475
sS'diploma'
p740
F4.368365774363351
sS'clearance'
p741
F4.236178648643772
sS'spend'
p742
F4.160054953170971
sS'coup'
p743
F4.086882347281311
sS'stores'
p744
F4.0852616013835785
sS'sourced'
p745
F4.525117002667814
sS'heavily'
p746
F4.481458055590208
sS'paperwork'
p747
F4.579358832379106
sS'photo'
p748
F4.228206742415919
sS'schedules'
p749
F4.336113441475364
sS'domestic'
p750
F4.4647512230884825
sS'technicians'
p751
F4.3206252640325635
sS'assigned'
p752
F4.188824363748234
sS'foot'
p753
F4.5194761227777285
sS'grades'
p754
F4.653007515402251
sS'reputable'
p755
F4.187926697619733
sS'maternity'
p756
F4.216136029469243
sS'rooms'
p757
F4.171022380498073
sS'human'
p758
F4.425871942818504
sS'merge'
p759
F4.416242868136076
sS'speed'
p760
F4.553808801858234
sS'coordination'
p761
F4.115679071770262
sS'profitable'
p762
F4.288364401814342
sS'dining'
p763
F4.508907171428494
sS'execution'
p764
F4.250881308559602
sS'acumen'
p765
F4.204209282587713
sS'informal'
p766
F4.209696264803973
sS'rose'
p767
F4.477255107343766
sS'regarded'
p768
F4.501513422403557
sS'scales'
p769
F4.059680670124517
sS'character'
p770
F4.298334574134192
sS'calibre'
p771
F4.076795515743421
sS'capabilities'
p772
F4.16749969962055
sS'desktop'
p773
F4.5674853419640895
sS'instrument'
p774
F4.357676201704571
sS'lets'
p775
F4.460617765771375
sS'spread'
p776
F4.4647512230884825
sS'combine'
p777
F4.14489986770331
sS'treatment'
p778
F4.0852616013835785
sS'versa'
p779
F4.034737833775057
sS'instructions'
p780
F4.338196775562218
sS'smart'
p781
F4.325761382154331
sS'designate'
p782
F4.636712432915749
sS'kingdom'
p783
F4.627618281397432
sS'complaint'
p784
F4.348679051835728
sS'grit'
p785
F4.0889119806145455
sS'sick'
p786
F4.524488664601273
sS'government'
p787
F4.11026802839073
sS'checking'
p788
F4.258555207129489
sS'evaluate'
p789
F4.232419245719866
sS'couple'
p790
F4.122379264340081
sS'sussex'
p791
F4.403361144222043
sS'cultural'
p792
F4.481458055590208
sS'five'
p793
F4.214752584471096
sS'aerospace'
p794
F4.172346591682528
sS'deployment'
p795
F4.326276447836591
sS'supervisory'
p796
F4.274571079682007
sS'credentials'
p797
F4.0160528287785
sS'tick'
p798
F4.164427500583581
sS'loss'
p799
F4.621370430459069
sS'contractual'
p800
F4.645181079152787
sS'bsen'
p801
F4.04830130464153
sS'submission'
p802
F4.539041278272569
sS'vibrant'
p803
F4.088505724261203
sS'hunt'
p804
F4.452401757113408
sS'sized'
p805
F4.218446032806448
sS'audience'
p806
F4.525745735791324
sS'entice'
p807
F4.142753483535219
sS'served'
p808
F4.468307836203329
sS'introduce'
p809
F4.6444726129524145
sS'troubleshoot'
p810
F4.254231395444884
sS'conciliation'
p811
F4.045963033895718
sS'often'
p812
F4.5840146439153004
sS'spring'
p813
F4.6681211532123
sS'creation'
p814
F4.059680670124517
sS'ingle'
p815
F4.459439909333669
sS'searching'
p816
F4.304364743160783
sS'authority'
p817
F4.228673922989704
sS'economic'
p818
F4.312970212616542
sS'pricing'
p819
F4.187478166551437
sS'invoice'
p820
F4.024398855979877
sS'specified'
p821
F4.226340199643484
sS'duration'
p822
F4.190172375635129
sS'march'
p823
F4.624142435006079
sS'aust'
p824
F4.5263748644688855
sS'competitor'
p825
F4.299337080483817
sS'confirm'
p826
F4.074790301516283
sS'proficient'
p827
F4.046741850134461
sS'exceeding'
p828
F4.5480042063922665
sS'protocol'
p829
F4.500899737204794
sS'studio'
p830
F4.5295264586312305
sS'contributing'
p831
F4.444832579781963
sS'religion'
p832
F4.389544953185698
sS'allocate'
p833
F4.32113769038249
sS'wellestablished'
p834
F4.5076710773279665
sS'booking'
p835
F4.028215654506578
sS'conference'
p836
F4.216597603444666
sS'hose'
p837
F4.0812211918465735
sS'assembly'
p838
F4.6444726129524145
sS'retailers'
p839
F4.5276343104791925
sS'putt'
p840
F4.551224821092309
sS'chefs'
p841
F4.542872700584125
sS'continuing'
p842
F4.388447860371325
sS'agreement'
p843
F4.02287620627572
sS'deliverables'
p844
F4.505819796330243
sS'graduates'
p845
F4.337675534997902
sS'host'
p846
F4.3775426268890625
sS'output'
p847
F4.5629056807050645
sS'bury'
p848
F4.007401279611306
sS'etailers'
p849
F4.518226903377297
sS'analysing'
p850
F4.243740121344349
sS'conducting'
p851
F4.266288450115143
sS'goods'
p852
F4.366218698927685
sS'actual'
p853
F4.082835397201115
sS'carried'
p854
F4.122379264340081
sS'getting'
p855
F4.4856787431944385
sS'completing'
p856
F4.219371530327391
sS'dependence'
p857
F4.674669012183431
sS'methodology'
p858
F4.564212016619121
sS'grown'
p859
F4.532688016749959
sS'adhered'
p860
F4.508288933387164
sS'mouth'
p861
F4.365146887463879
sS'powerpoint'
p862
F4.216136029469243
sS'block'
p863
F4.351316879796278
sS'bath'
p864
F4.62831490281188
sS'outlook'
p865
F4.067206948471762
sS'cambridge'
p866
F4.227273035532025
sS'statements'
p867
F4.499060938035137
sS'plenty'
p868
F4.520101318171648
sS'resourcing'
p869
F4.047521273400732
sS'previously'
p870
F4.135490046346689
sS'strive'
p871
F4.551870190588732
sS'integral'
p872
F4.448901170108126
sS'essex'
p873
F4.31398750670224
sS'articulate'
p874
F4.201022391659194
sS'servers'
p875
F4.5415939280313475
sS'administer'
p876
F4.411743422974847
sS'device'
p877
F4.1265897968764245
sS'explain'
p878
F4.335593285416822
sS'rising'
p879
F4.240424939525223
sS'troubleshooting'
p880
F4.489310708446003
sS'primarily'
p881
F4.1535317728318475
sS'parties'
p882
F4.089724988789409
sS'operator'
p883
F4.116514144887683
sS'cisco'
p884
F4.623448713160707
sS'perl'
p885
F4.650154446419845
sS'negotiable'
p886
F4.17411493873927
sS'technically'
p887
F4.105299074067543
sS'pharmaceutical'
p888
F4.256150781830687
sS'rely'
p889
F4.613100224810396
sS'undertaken'
p890
F4.596762216737803
sS'supervising'
p891
F4.433871985485581
sS'encouraged'
p892
F4.547361326267264
sS'transfer'
p893
F4.092983647477489
sS'constantly'
p894
F4.28985360536581
sS'lone'
p895
F4.220761384616445
sS'transform'
p896
F4.4275808580734735
sS'accountability'
p897
F4.66233661069077
sS'logica'
p898
F4.008525506823587
sS'accordingly'
p899
F4.6021786145429715
sS'influencing'
p900
F4.052602386540921
sS'relo'
p901
F4.27506043618798
sS'ares'
p902
F4.169699920530153
sS'spar'
p903
F4.604217351232819
sS'sections'
p904
F4.470685958608297
sS'accountancy'
p905
F4.505819796330243
sS'files'
p906
F4.3099245249829865
sS'lowe'
p907
F4.1657430017599175
sS'ireland'
p908
F4.439625741289995
sS'forecasts'
p909
F4.535224479745868
sS'manufacturers'
p910
F4.650154446419845
sS'something'
p911
F4.658738190111237
sS'becoming'
p912
F4.6021786145429715
sS'mics'
p913
F4.1470508687477645
sS'dita'
p914
F4.563558635347918
sS'dipl'
p915
F4.33195974910667
sS'automated'
p916
F4.3994733303830325
sS'remote'
p917
F4.509525791924561
sS'refurb'
p918
F4.4796546285910575
sS'safeguard'
p919
F4.1325144862341245
sS'true'
p920
F4.61929645805994
sS'raising'
p921
F4.140611696466744
sS'especially'
p922
F4.4298639640880415
sS'directed'
p923
F4.636009939033681
sS'engaging'
p924
F4.234767215805364
sS'branded'
p925
F4.490524300827961
sS'piri'
p926
F4.0812211918465735
sS'whether'
p927
F4.051818994413117
sS'maximum'
p928
F4.341329937394255
sS'devices'
p929
F4.440780475829392
sS'placed'
p930
F4.584681532903004
sS'embedded'
p931
F4.675399205717152
sS'submitting'
p932
F4.5295264586312305
sS'arrangement'
p933
F4.419630787808012
sS'emis'
p934
F4.129971034248293
sS'stages'
p935
F4.393945400330519
sS'minutes'
p936
F4.650154446419845
sS'display'
p937
F4.17014054622576
sS'minded'
p938
F4.331441748577087
sS'wants'
p939
F4.2716399588731475
sS'proud'
p940
F4.310938723852881
sS'proved'
p941
F4.060865270460478
sS'adults'
p942
F4.11986142834774
sS'links'
p943
F4.2878684930513895
sS'certain'
p944
F4.523860721095553
sS'statistic'
p945
F4.236649569302346
sS'contributory'
p946
F4.28985360536581
sS'deep'
p947
F4.650866950903141
sS'globally'
p948
F4.339762129390855
sS'racking'
p949
F4.400027807802284
sS'single'
p950
F4.571427528409829
sS'chat'
p951
F4.3619383285615125
sS'rally'
p952
F4.091352990776981
sS'shooting'
p953
F4.33040655179727
sS'dealer'
p954
F4.33195974910667
sS'mathematic'
p955
F4.638822880410295
sS'renowned'
p956
F4.02936354060928
sS'assessing'
p957
F4.357144710860276
sS'discriminate'
p958
F4.15700550624242
sS'berkshire'
p959
F4.341853086765329
sS'floor'
p960
F4.226340199643484
sS'drivers'
p961
F4.017565116401312
sS'overseeing'
p962
F4.190172375635129
sS'storage'
p963
F4.329889354992361
sS'virtual'
p964
F4.539041278272569
sS'saturday'
p965
F4.249448985564669
sS'occasional'
p966
F4.1535317728318475
sS'club'
p967
F4.60285773171678
sS'leed'
p968
F4.022115749965309
sS'holding'
p969
F4.469496190472708
sS'income'
p970
F4.156135940970236
sS'warehouse'
p971
F4.330924016233138
sS'predominant'
p972
F4.525117002667814
sS'requested'
p973
F4.310938723852881
sS'elements'
p974
F4.388996256326939
sS'intend'
p975
F4.626922144926576
sS'energetic'
p976
F4.341329937394255
sS'collaborative'
p977
F4.408382075272142
sS'terri'
p978
F4.02936354060928
sS'models'
p979
F4.190622117041404
sS'stay'
p980
F4.407822947496882
sS'directory'
p981
F4.625531324118233
sS'notting'
p982
F4.306382907317021
sS'rolling'
p983
F4.283416346196973
sS'stoke'
p984
F4.647309494287613
sS'reconciliations'
p985
F4.500899737204794
sS'meals'
p986
F4.460028664134309
sS'pool'
p987
F4.004036161460993
sS'thematic'
p988
F4.624836638435555
sS'tailored'
p989
F4.4796546285910575
sS'methodologies'
p990
F4.074389740725828
sS'rbis'
p991
F4.516355995441486
sS'casts'
p992
F4.507053602779171
sS'vehicles'
p993
F4.283416346196973
sS'resolving'
p994
F4.488704464110975
sS'websites'
p995
F4.272616044846203
sS'filing'
p996
F4.402804815974036
sS'loyal'
p997
F4.464159682107021
sS'mast'
p998
F4.450066671405561
sS'mass'
p999
F4.445412794477672
sS'pupil'
p1000
F4.049472493531994
sS'reception'
p1001
F4.415679329096085
sS'oracle'
p1002
F4.060865270460478
sS'determination'
p1003
F4.412866387719471
s.