(dp0
S'groundwork'
p1
F7.152302902642352
sS'dynamic'
p2
F6.107274860108348
sS'nottingham'
p3
F6.16066273352641
sS'query'
p4
F7.161036582611106
sS'mill'
p5
F6.128914035211829
sS'telemarketing'
p6
F7.109743288223555
sS'freelance'
p7
F7.169847212293261
sS'pensions'
p8
F6.508163301189101
sS'opportunities'
p9
F6.408297304848915
sS'environment'
p10
F6.086094038028901
sS'charge'
p11
F6.822061215771774
sS'foster'
p12
F7.01443310841923
sS'stafford'
p13
F7.178736159710507
sS'vbnet'
p14
F6.284106924617531
sS'worth'
p15
F7.029700580550019
sS'resources'
p16
F6.955592608396297
sS'resourcer'
p17
F6.9627610978749095
sS'adviser'
p18
F6.352057586526039
sS'premium'
p19
F7.045204767085984
sS'automotive'
p20
F6.190124766256726
sS'rise'
p21
F6.709849225164847
sS'dell'
p22
F6.450497659339291
sS'cook'
p23
F6.913628409297265
sS'cnet'
p24
F7.006885902783847
sS'facilities'
p25
F6.18020732959938
sS'skills'
p26
F6.634544842100716
sS'venue'
p27
F6.163893754107856
sS'highway'
p28
F7.076953465400565
sS'logistics'
p29
F6.186808013630732
sS'force'
p30
F6.9627610978749095
sS'miller'
p31
F6.313738722223902
sS'second'
p32
F6.167135248032027
sS'cost'
p33
F6.437649516861443
sS'lawyer'
p34
F6.183502225496232
sS'eating'
p35
F7.076953465400565
sS'dynamics'
p36
F6.262445427836352
sS'casual'
p37
F7.161036582611106
sS'vmware'
p38
F6.709849225164847
sS'hertford'
p39
F6.273217524818263
sS'paralegal'
p40
F6.608968000311066
sS'cell'
p41
F6.113409848675864
sS'capital'
p42
F6.969981345848397
sS'supplier'
p43
F6.991960252567172
sS'tips'
p44
F6.755571474502942
sS'ground'
p45
F6.450497659339291
sS'ever'
p46
F6.8034848301988395
sS'public'
p47
F6.619120371775084
sS'exchange'
p48
F6.9845801452695495
sS'water'
p49
F6.027938117871827
sS'protection'
p50
F6.8865997369093455
sS'change'
p51
F6.019499249225962
sS'great'
p52
F6.135183648225425
sS'male'
p53
F6.99939523105469
sS'bookkeeper'
p54
F7.152302902642352
sS'cambridgeshire'
p55
F6.840989225657293
sS'products'
p56
F6.847379023756065
sS'advertising'
p57
F6.574225051867193
sS'derby'
p58
F6.743943436507823
sS'berks'
p59
F6.190124766256726
sS'hospitality'
p60
F6.535942865296176
sS'welder'
p61
F6.42917488987047
sS'maker'
p62
F6.755571474502942
sS'fantastic'
p63
F6.588967333604397
sS'campaign'
p64
F6.624235472441854
sS'private'
p65
F6.173649929053221
sS'maths'
p66
F6.071234923625151
sS'unix'
p67
F6.650210958845116
sS'operational'
p68
F7.135061096207846
sS'working'
p69
F6.767336316082528
sS'oxfordshire'
p70
F6.8034848301988395
sS'sports'
p71
F6.873354510159325
sS'music'
p72
F6.948475140627433
sS'asset'
p73
F6.328890527244504
sS'slough'
p74
F7.109743288223555
sS'branded'
p75
F6.5219566233214366
sS'assessment'
p76
F6.948475140627433
sS'door'
p77
F6.9845801452695495
sS'apprentices'
p78
F7.152302902642352
sS'club'
p79
F6.99939523105469
sS'cashier'
p80
F7.224406196543695
sS'award'
p81
F6.614031302267613
sS'phone'
p82
F6.574225051867193
sS'visual'
p83
F6.682299273396616
sS'labourer'
p84
F6.273217524818263
sS'excellent'
p85
F6.28046393333903
sS'underwriter'
p86
F6.815830666021139
sS'hole'
p87
F7.2058871487764575
sS'charity'
p88
F6.55490077904079
sS'bedford'
p89
F6.755571474502942
sS'graphic'
p90
F6.4419139156479
sS'join'
p91
F6.913628409297265
sS'room'
p92
F6.1934525563494
sS'install'
p93
F6.295116210125901
sS'keynes'
p94
F6.608968000311066
sS'machinist'
p95
F6.420771479074091
sS'disabilities'
p96
F7.085050675633184
sS'claim'
p97
F6.013912642517322
sS'bens'
p98
F6.927421731429601
sS'trial'
p99
F6.147842045097348
sS'want'
p100
F6.163893754107856
sS'information'
p101
F6.128914035211829
sS'recovery'
p102
F6.773271051602342
sS'sharepoint'
p103
F6.21365526366692
sS'hampshire'
p104
F6.273217524818263
sS'machine'
p105
F6.3678059434941785
sS'asbestos'
p106
F6.379782134540894
sS'presales'
p107
F6.822061215771774
sS'gate'
p108
F6.785247242649058
sS'stock'
p109
F6.404173587665053
sS'upto'
p110
F7.060953124054124
sS'edinburgh'
p111
F6.467889402051161
sS'plant'
p112
F6.644961602958972
sS'collection'
p113
F6.715451480713517
sS'applications'
p114
F6.0167020446049015
sS'physio'
p115
F6.853809914086355
sS'produce'
p116
F7.085050675633184
sS'waste'
p117
F7.037422626643929
sS'purchase'
p118
F6.039301876522142
sS'entry'
p119
F6.170387283418404
sS'wiltshire'
p120
F6.991960252567172
sS'author'
p121
F6.873354510159325
sS'chief'
p122
F6.8865997369093455
sS'green'
p123
F7.109743288223555
sS'order'
p124
F7.029700580550019
sS'frontend'
p125
F7.215103803881382
sS'help'
p126
F6.227354108025081
sS'telecom'
p127
F6.3062480504947445
sS'insight'
p128
F6.644961602958972
sS'mission'
p129
F6.2308083428931695
sS'years'
p130
F6.574225051867193
sS'civils'
p131
F6.991960252567172
sS'scientist'
p132
F6.6714883572924
sS'childrens'
p133
F7.045204767085984
sS'bridges'
p134
F6.779241218588846
sS'pharma'
p135
F6.1934525563494
sS'winning'
p136
F6.660793068175653
sS'late'
p137
F7.02203770780445
sS'permanent'
p138
F6.0083570726727205
sS'policy'
p139
F7.118111537894072
sS'wales'
p140
F6.8865997369093455
sS'2013'
p141
F6.490063259545483
sS'good'
p142
F7.135061096207846
sS'greater'
p143
F7.187704829693267
sS'python'
p144
F7.01443310841923
sS'material'
p145
F6.698737999739776
sS'lettings'
p146
F6.321285927859285
sS'hertfordshire'
p147
F6.375774113143355
sS'structural'
p148
F6.2308083428931695
sS'fundraiser'
p149
F6.545376897529535
sS'micro'
p150
F6.167135248032027
sS'england'
p151
F6.906802444226865
sS'gaming'
p152
F7.1436448398992365
sS'energy'
p153
F6.089092541025158
sS'hard'
p154
F6.3638455422780815
sS'croydon'
p155
F7.1436448398992365
sS'trading'
p156
F6.476700031733316
sS'citrix'
p157
F7.1436448398992365
sS'rosettes'
p158
F7.126550406539937
sS'category'
p159
F6.387846694377624
sS'space'
p160
F6.650210958845116
sS'boutique'
p161
F7.037422626643929
sS'content'
p162
F6.564516237740232
sS'hill'
p163
F6.941407973404341
sS'kent'
p164
F6.077152100653239
sS'dutch'
p165
F7.135061096207846
sS'print'
p166
F6.629376871942274
sS'newly'
p167
F6.99939523105469
sS'assurance'
p168
F6.147842045097348
sS'apprenticeship'
p169
F7.215103803881382
sS'sheffield'
p170
F6.603930206281109
sS'free'
p171
F6.743943436507823
sS'members'
p172
F6.879955194190677
sS'regulatory'
p173
F6.559696951304283
sS'wanted'
p174
F6.241243220185749
sS'marine'
p175
F7.076953465400565
sS'card'
p176
F6.203502892202902
sS'language'
p177
F6.743943436507823
sS'hull'
p178
F7.224406196543695
sS'days'
p179
F6.21365526366692
sS'motion'
p180
F7.126550406539937
sS'turn'
p181
F6.21365526366692
sS'allied'
p182
F6.682299273396616
sS'castle'
p183
F6.682299273396616
sS'housing'
p184
F6.135183648225425
sS'gloucester'
p185
F6.41659610766361
sS'major'
p186
F6.873354510159325
sS'industrial'
p187
F6.234274550869656
sS'researcher'
p188
F7.126550406539937
sS'strategic'
p189
F7.045204767085984
sS'spanish'
p190
F7.01443310841923
sS'engagement'
p191
F7.01443310841923
sS'relations'
p192
F6.154231843196119
sS'paint'
p193
F7.224406196543695
sS'wilts'
p194
F6.934390400745694
sS'intermediate'
p195
F6.969981345848397
sS'scheme'
p196
F6.969981345848397
sS'lease'
p197
F7.1014444854088605
sS'para'
p198
F6.116491515213272
sS'tool'
p199
F6.113409848675864
sS'park'
p200
F6.9627610978749095
sS'environmental'
p201
F6.535942865296176
sS'dentist'
p202
F7.006885902783847
sS'optical'
p203
F7.196754665213185
sS'copy'
p204
F6.900022757241486
sS'milton'
p205
F6.564516237740232
sS'wide'
p206
F6.767336316082528
sS'circa'
p207
F7.109743288223555
sS'roles'
p208
F7.118111537894072
sS'tree'
p209
F6.634544842100716
sS'covent'
p210
F6.822061215771774
sS'sourcing'
p211
F6.6714883572924
sS'street'
p212
F6.76143659395534
sS'acquisition'
p213
F7.05304794454701
sS'physiotherapist'
p214
F7.045204767085984
sS'fashion'
p215
F6.062424293942996
sS'urgently'
p216
F7.224406196543695
sS'emea'
p217
F6.906802444226865
sS'worcester'
p218
F6.913628409297265
sS'pastry'
p219
F6.234274550869656
sS'commissioning'
p220
F6.866797109613166
sS'turner'
p221
F6.3062480504947445
sS'borough'
p222
F6.55490077904079
sS'brighton'
p223
F6.9627610978749095
sS'affairs'
p224
F6.991960252567172
sS'outbound'
p225
F6.588967333604397
sS'relationship'
p226
F6.732449057082087
sS'rnld'
p227
F6.815830666021139
sS'purchasing'
p228
F6.6877488781641805
sS'contact'
p229
F6.9845801452695495
sS'equipment'
p230
F6.579115037161385
sS'labour'
p231
F6.17692325439819
sS'performance'
p232
F6.927421731429601
sS'channel'
p233
F6.9627610978749095
sS'auditor'
p234
F6.022304300153571
sS'lecturer'
p235
F6.089092541025158
sS'theatre'
p236
F6.186808013630732
sS'procure'
p237
F6.025117241530186
sS'claims'
p238
F6.053690613974242
sS'pair'
p239
F6.99939523105469
sS'salary'
p240
F6.977254105177477
sS'southampton'
p241
F6.598917664457565
sS'dealers'
p242
F7.224406196543695
sS'payable'
p243
F6.709849225164847
sS'camp'
p244
F6.540648756333589
sS'metal'
p245
F7.118111537894072
sS'enterprise'
p246
F6.853809914086355
sS'consumer'
p247
F6.82833082878537
sS'microsoft'
p248
F6.508163301189101
sS'sector'
p249
F6.251788133362364
sS'leicester'
p250
F6.424964357334127
sS'asic'
p251
F6.437649516861443
sS'advisors'
p252
F6.588967333604397
sS'bright'
p253
F6.913628409297265
sS'radio'
p254
F7.05304794454701
sS'freight'
p255
F7.135061096207846
sS'portfolio'
p256
F7.1014444854088605
sS'setter'
p257
F6.154231843196119
sS'litigation'
p258
F6.655488015945959
sS'access'
p259
F6.650210958845116
sS'emarketing'
p260
F7.045204767085984
sS'implementation'
p261
F6.433403225979991
sS'micros'
p262
F6.459155722082406
sS'helpdesk'
p263
F6.472285013524199
sS'controls'
p264
F6.53125901598375
sS'mens'
p265
F6.853809914086355
sS'earner'
p266
F7.093213986272345
sS'wood'
p267
F7.109743288223555
sS'black'
p268
F7.187704829693267
sS'treasury'
p269
F7.01443310841923
sS'apprentice'
p270
F6.047910251058743
sS'merchandiser'
p271
F6.284106924617531
sS'northampton'
p272
F6.666126414151015
sS'contracts'
p273
F6.036448807539736
sS'leisure'
p274
F6.941407973404341
sS'multiskilled'
p275
F6.920501288585027
sS'buckinghamshire'
p276
F6.853809914086355
sS'merchandise'
p277
F6.18020732959938
sS'secondary'
p278
F6.287763235820641
sS'toolmaker'
p279
F7.187704829693267
sS'resource'
p280
F6.036448807539736
sS'cheshire'
p281
F6.6714883572924
sS'logistic'
p282
F6.167135248032027
sS'fixed'
p283
F6.3717820918738175
sS'vision'
p284
F6.809638695773217
sS'view'
p285
F6.55490077904079
sS'available'
p286
F6.9627610978749095
sS'intelligence'
p287
F6.424964357334127
sS'analytics'
p288
F6.906802444226865
sS'migration'
p289
F7.037422626643929
sS'aberdeen'
p290
F6.375774113143355
sS'best'
p291
F6.223911763834109
sS'wire'
p292
F7.2058871487764575
sS'michelin'
p293
F6.879955194190677
sS'mortgage'
p294
F6.317505205019379
sS'cleaning'
p295
F6.17692325439819
sS'assistants'
p296
F6.190124766256726
sS'reading'
p297
F6.022304300153571
sS'glasgow'
p298
F6.53125901598375
sS'europe'
p299
F6.408297304848915
sS'ability'
p300
F6.132043928220757
sS'opening'
p301
F6.4000668057124
sS'wear'
p302
F6.241243220185749
sS'franchise'
p303
F7.045204767085984
sS'come'
p304
F6.873354510159325
sS'kitchen'
p305
F6.047910251058743
sS'hours'
p306
F6.634544842100716
sS'installation'
p307
F6.574225051867193
sS'career'
p308
F6.709849225164847
sS'html5'
p309
F7.006885902783847
sS'duty'
p310
F7.093213986272345
sS'electrician'
p311
F6.383806284840619
sS'wall'
p312
F7.161036582611106
sS'packaging'
p313
F7.109743288223555
sS'agents'
p314
F6.853809914086355
sS'technologist'
p315
F6.332714623682908
sS'swindon'
p316
F7.1436448398992365
sS'conference'
p317
F6.866797109613166
sS'arts'
p318
F6.644961602958972
sS'carer'
p319
F6.375774113143355
sS'consultancy'
p320
F6.559696951304283
sS'strategy'
p321
F6.693228343928806
sS'commission'
p322
F6.481134628801182
sS'workshop'
p323
F6.815830666021139
sS'basic'
p324
F6.512739968216512
sS'contractor'
p325
F7.006885902783847
sS'territory'
p326
F6.634544842100716
sS'treatment'
p327
F6.99939523105469
sS'life'
p328
F6.634544842100716
sS'liverpool'
p329
F6.433403225979991
sS'fire'
p330
F6.517337677465142
sS'aero'
p331
F6.755571474502942
sS'modelling'
p332
F7.05304794454701
sS'catering'
p333
F6.14149281741869
sS'lift'
p334
F6.715451480713517
sS'mail'
p335
F7.224406196543695
sS'fmcg'
p336
F6.359900763987064
sS'instructor'
p337
F7.093213986272345
sS'ruby'
p338
F6.906802444226865
sS'case'
p339
F6.9627610978749095
sS'homes'
p340
F7.187704829693267
sS'coventry'
p341
F6.893288725060143
sS'cash'
p342
F6.328890527244504
sS'stunning'
p343
F7.169847212293261
sS'fleet'
p344
F6.8865997369093455
sS'pound'
p345
F7.0689212937033
sS'telephone'
p346
F7.029700580550019
sS'demi'
p347
F6.76143659395534
sS'hardware'
p348
F6.540648756333589
sS'middle'
p349
F6.459155722082406
sS'bias'
p350
F7.178736159710507
sS'inspector'
p351
F6.375774113143355
sS'technology'
p352
F6.025117241530186
sS'doctor'
p353
F6.822061215771774
sS'make'
p354
F6.660793068175653
sS'administration'
p355
F6.170387283418404
sS'member'
p356
F6.446196577439901
sS'shifts'
p357
F7.05304794454701
sS'parts'
p358
F7.118111537894072
sS'speaker'
p359
F6.9845801452695495
sS'android'
p360
F6.698737999739776
sS'document'
p361
F6.809638695773217
sS'european'
p362
F6.840989225657293
sS'week'
p363
F6.077152100653239
sS'independent'
p364
F7.1436448398992365
sS'practice'
p365
F6.332714623682908
sS'partners'
p366
F7.01443310841923
sS'reporting'
p367
F6.200141544500197
sS'rail'
p368
F6.2377528152459805
sS'automation'
p369
F6.4000668057124
sS'user'
p370
F6.755571474502942
sS'student'
p371
F7.1436448398992365
sS'euro'
p372
F6.163893754107856
sS'older'
p373
F7.1436448398992365
sS'well'
p374
F6.375774113143355
sS'analysis'
p375
F6.847379023756065
sS'procurement'
p376
F6.047910251058743
sS'materials'
p377
F6.822061215771774
sS'relief'
p378
F6.481134628801182
sS'position'
p379
F6.3959768204608745
sS'model'
p380
F6.313738722223902
sS'audio'
p381
F6.941407973404341
sS'domestic'
p382
F6.559696951304283
sS'gastro'
p383
F6.472285013524199
sS'suffolk'
p384
F6.991960252567172
sS'sourcer'
p385
F6.934390400745694
sS'maternity'
p386
F6.200141544500197
sS'human'
p387
F6.644961602958972
sS'mysql'
p388
F6.485588979150561
sS'letting'
p389
F6.262445427836352
sS'belfast'
p390
F7.161036582611106
sS'family'
p391
F6.50360748465324
sS'dining'
p392
F7.05304794454701
sS'agile'
p393
F6.036448807539736
sS'improvement'
p394
F6.755571474502942
sS'instrument'
p395
F7.01443310841923
sS'collections'
p396
F6.860282428591972
sS'location'
p397
F6.927421731429601
sS'designate'
p398
F7.060953124054124
sS'real'
p399
F6.822061215771774
sS'optometrists'
p400
F7.118111537894072
sS'sussex'
p401
F6.22048122873732
sS'early'
p402
F6.63973965897782
sS'aerospace'
p403
F6.847379023756065
sS'newcastle'
p404
F6.866797109613166
sS'press'
p405
F6.476700031733316
sS'projects'
p406
F6.348158946110382
sS'lincoln'
p407
F7.187704829693267
sS'intel'
p408
F6.135183648225425
sS'semi'
p409
F6.927421731429601
sS'manual'
p410
F7.1436448398992365
sS'italian'
p411
F7.152302902642352
sS'right'
p412
F6.822061215771774
sS'cisco'
p413
F6.248260792844396
sS'deal'
p414
F6.55490077904079
sS'people'
p415
F6.99939523105469
sS'back'
p416
F6.7042781801153915
sS'elderly'
p417
F6.383806284840619
sS'export'
p418
F6.991960252567172
sS'pricing'
p419
F6.767336316082528
sS'employment'
p420
F6.644961602958972
sS'transport'
p421
F6.4990723294878485
sS'integration'
p422
F7.045204767085984
sS'creative'
p423
F6.517337677465142
sS'porter'
p424
F7.215103803881382
sS'assembly'
p425
F6.934390400745694
sS'scientific'
p426
F6.879955194190677
sS'power'
p427
F6.454817320483808
sS'asap'
p428
F6.574225051867193
sS'dental'
p429
F6.732449057082087
sS'inspect'
p430
F6.227354108025081
sS'broker'
p431
F6.454817320483808
sS'paediatric'
p432
F6.721085298431772
sS'keeper'
p433
F6.420771479074091
sS'post'
p434
F6.588967333604397
sS'exciting'
p435
F7.224406196543695
sS'stage'
p436
F6.424964357334127
sS'stone'
p437
F6.991960252567172
sS'package'
p438
F6.512739968216512
sS'industry'
p439
F6.598917664457565
sS'months'
p440
F6.273217524818263
sS'plus'
p441
F6.10117728024023
sS'stand'
p442
F6.934390400745694
sS'desktop'
p443
F6.715451480713517
sS'road'
p444
F6.893288725060143
sS'executives'
p445
F6.593930122946526
sS'repair'
p446
F7.178736159710507
sS'ladies'
p447
F7.215103803881382
sS'managers'
p448
F6.022304300153571
sS'fundraising'
p449
F6.5501275002881325
sS'civil'
p450
F6.0083570726727205
sS'retailer'
p451
F6.7042781801153915
sS'functional'
p452
F6.860282428591972
sS'bath'
p453
F6.955592608396297
sS'locum'
p454
F6.019499249225962
sS'stoke'
p455
F6.732449057082087
sS'cardiff'
p456
F6.773271051602342
sS'pharmaceutical'
p457
F7.02203770780445
sS'fabric'
p458
F6.682299273396616
sS'tutor'
p459
F6.467889402051161
sS'recruiter'
p460
F6.834639997978635
sS'fast'
p461
F6.387846694377624
sS'italia'
p462
F7.045204767085984
sS'editor'
p463
F7.1436448398992365
sS'somerset'
p464
F7.135061096207846
sS'function'
p465
F6.767336316082528
sS'fpga'
p466
F7.2058871487764575
sS'warwick'
p467
F6.927421731429601
sS'warrington'
p468
F7.060953124054124
sS'buckingham'
p469
F6.809638695773217
sS'domiciliary'
p470
F6.3678059434941785
sS'injury'
p471
F6.977254105177477
sS'inside'
p472
F7.161036582611106
sS'fabricator'
p473
F7.060953124054124
sS'emis'
p474
F6.355971485847175
sS'adults'
p475
F6.6714883572924
sS'reservations'
p476
F7.161036582611106
sS'fellow'
p477
F7.215103803881382
sS'ssrs'
p478
F7.169847212293261
sS'telecoms'
p479
F6.655488015945959
sS'accounting'
p480
F6.955592608396297
sS'education'
p481
F6.019499249225962
sS'dealer'
p482
F6.6714883572924
sS'berkshire'
p483
F6.344275446083984
sS'drivers'
p484
F6.2308083428931695
sS'storage'
p485
F7.161036582611106
sS'inbound'
p486
F6.977254105177477
sS'book'
p487
F6.603930206281109
sS'department'
p488
F6.834639997978635
sS'developers'
p489
F6.420771479074091
sS'chemist'
p490
F6.676879205927277
sS'gloucestershire'
p491
F7.2058871487764575
sS'fork'
p492
F7.093213986272345
sS'scrub'
p493
F6.715451480713517
sS'devon'
p494
F7.215103803881382
sS'reservation'
p495
F6.900022757241486
sS'guildford'
p496
F6.564516237740232
sS'weekend'
p497
F6.906802444226865
sS'pool'
p498
F6.033603855407504
sS'parttime'
p499
F6.459155722082406
sS'beverage'
p500
F7.109743288223555
sS'pension'
p501
F6.273217524818263
sS'fresh'
p502
F6.934390400745694
s.