(dp0
S'dunstable'
p1
F9.499339758207231
sS'limited'
p2
F9.594649938011555
sS'lakeside'
p3
F9.594649938011555
sS'assembler'
p4
F7.4905157837413485
sS'dynamic'
p5
F6.107274860108348
sS'refurbishment'
p6
F9.189184829903391
sS'four'
p7
F8.601398165001273
sS'nottingham'
p8
F6.16066273352641
sS'nursery'
p9
F5.613100869934799
sS'sleep'
p10
F9.594649938011555
sS'asian'
p11
F8.806192577647286
sS'integrity'
p12
F8.6783592061374
sS'consider'
p13
F8.601398165001273
sS'orthopaedics'
p14
F8.341886969516187
sS'electricians'
p15
F8.85271259328218
sS'centres'
p16
F9.258177701390343
sS'paris'
p17
F8.806192577647286
sS'disability'
p18
F7.302115180871011
sS'pensions'
p19
F6.508163301189101
sS'opener'
p20
F9.412328381217602
sS'matlab'
p21
F8.496037649343446
sS'teaching'
p22
F5.3165958937206526
sS'spec'
p23
F4.245639457148001
sS'merchant'
p24
F8.806192577647286
sS'risk'
p25
F5.1602680730037465
sS'physician'
p26
F9.12464630876582
sS'deli'
p27
F5.748766735087955
sS'regional'
p28
F5.38846589403392
sS'dell'
p29
F6.450497659339291
sS'guernsey'
p30
F9.12464630876582
sS'thriving'
p31
F9.594649938011555
sS'voip'
p32
F7.9852120255774555
sS'cnet'
p33
F7.006885902783847
sS'school'
p34
F5.33056260120236
sS'commision'
p35
F9.594649938011555
sS'progression'
p36
F7.692542411614635
sS'facilities'
p37
F6.18020732959938
sS'skills'
p38
F6.634544842100716
sS'venue'
p39
F6.163893754107856
sS'solution'
p40
F5.378087743065206
sS'piling'
p41
F8.90150275745161
sS'coventry'
p42
F6.893288725060143
sS'convenience'
p43
F9.700010453669382
sS'delegate'
p44
F8.496037649343446
sS'croatian'
p45
F9.700010453669382
sS'knitwear'
p46
F9.12464630876582
sS'force'
p47
F6.9627610978749095
sS'leaders'
p48
F7.6487397889562425
sS'vhdl'
p49
F8.63913849298412
sS'walsall'
p50
F8.183662964301293
sS'miller'
p51
F6.313738722223902
sS'direct'
p52
F4.265803366428696
sS'chef'
p53
F3.8799275233170203
sS'surrounding'
p54
F7.302115180871011
sS'ents'
p55
F4.961864584990491
sS'street'
p56
F6.76143659395534
sS'summer'
p57
F8.761740815076452
sS'winder'
p58
F9.064021686949385
sS'esol'
p59
F8.63913849298412
sS'draftsperson'
p60
F9.332285673544064
sS'machines'
p61
F9.189184829903391
sS'blue'
p62
F7.419898216527395
sS'established'
p63
F8.806192577647286
sS'bluf'
p64
F9.332285673544064
sS'blua'
p65
F9.189184829903391
sS'bluc'
p66
F9.412328381217602
sS'voids'
p67
F9.700010453669382
sS'specification'
p68
F7.802890468783501
sS'workflow'
p69
F9.412328381217602
sS'asic'
p70
F6.437649516861443
sS'bluh'
p71
F8.85271259328218
sS'asia'
p72
F7.871883340270452
sS'blut'
p73
F9.412328381217602
sS'bonuses'
p74
F8.90150275745161
sS'ashford'
p75
F8.259648871279216
sS'blup'
p76
F9.594649938011555
sS'blus'
p77
F8.85271259328218
sS'sheffield'
p78
F6.603930206281109
sS'supplier'
p79
F6.991960252567172
sS'supplies'
p80
F8.431499128205875
sS'tips'
p81
F6.755571474502942
sS'ever'
p82
F6.8034848301988395
sS'seeks'
p83
F9.006863273109436
sS'broadstairs'
p84
F9.700010453669382
sS'specialist'
p85
F4.566174725786969
sS'niche'
p86
F8.806192577647286
sS'million'
p87
F9.700010453669382
sS'geoenvironmental'
p88
F8.63913849298412
sS'hempstead'
p89
F8.463247826520455
sS'reporter'
p90
F9.499339758207231
sS'protection'
p91
F6.8865997369093455
sS'studio'
p92
F7.502785876333163
sS'nanny'
p93
F7.431326912351017
sS'active'
p94
F7.478394423209004
sS'path'
p95
F8.463247826520455
sS'revenues'
p96
F9.412328381217602
sS'atex'
p97
F9.594649938011555
sS'huddersfield'
p98
F8.259648871279216
sS'property'
p99
F5.33056260120236
sS'oman'
p100
F9.12464630876582
sS'study'
p101
F8.431499128205875
sS'economics'
p102
F8.259648871279216
sS'yarmouth'
p103
F9.412328381217602
sS'reports'
p104
F8.068593634516507
sS'credit'
p105
F5.083790431494705
sS'fulltime'
p106
F8.952796051839162
sS'analysts'
p107
F7.302115180871011
sS'berks'
p108
F6.190124766256726
sS'military'
p109
F8.719181200657657
sS'welding'
p110
F7.722847761109964
sS'exeter'
p111
F7.2528441318642285
sS'fantastic'
p112
F6.588967333604397
sS'powys'
p113
F9.332285673544064
sS'secure'
p114
F8.026034020097711
sS'campaign'
p115
F6.624235472441854
sS'mobility'
p116
F7.692542411614635
sS'ground'
p117
F6.450497659339291
sS'highly'
p118
F8.63913849298412
sS'county'
p119
F8.233673384875955
sS'unix'
p120
F6.650210958845116
sS'gateshead'
p121
F8.952796051839162
sS'total'
p122
F9.700010453669382
sS'unit'
p123
F4.586016646585973
sS'receivable'
p124
F7.889901845773131
sS'derivatives'
p125
F7.889901845773131
sS'army'
p126
F9.594649938011555
sS'hospital'
p127
F5.876211681656075
sS'tenders'
p128
F9.700010453669382
sS'lyme'
p129
F8.719181200657657
sS'coordinators'
p130
F9.499339758207231
sS'foster'
p131
F7.01443310841923
sS'tele'
p132
F4.596087225149569
sS'asset'
p133
F6.328890527244504
sS'apprenticeships'
p134
F9.189184829903391
sS'assessment'
p135
F6.948475140627433
sS'evening'
p136
F7.502785876333163
sS'composite'
p137
F8.565030520830398
sS'award'
p138
F6.614031302267613
sS'hatfield'
p139
F9.006863273109436
sS'phone'
p140
F6.574225051867193
sS'warm'
p141
F8.286317118361376
sS'adult'
p142
F5.91834926610448
sS'conversion'
p143
F9.189184829903391
sS'excellent'
p144
F6.28046393333903
sS'organic'
p145
F9.412328381217602
sS'ward'
p146
F5.56573318111191
sS'ware'
p147
F3.573141269555197
sS'must'
p148
F8.63913849298412
sS'hounslow'
p149
F8.341886969516187
sS'join'
p150
F6.913628409297265
sS'room'
p151
F6.1934525563494
sS'presentation'
p152
F9.332285673544064
sS'work'
p153
F3.443194654594633
sS'eclipse'
p154
F9.332285673544064
sS'breakfast'
p155
F8.431499128205875
sS'worth'
p156
F7.029700580550019
sS'install'
p157
F6.295116210125901
sS'machinist'
p158
F6.420771479074091
sS'criminal'
p159
F9.700010453669382
sS'scripting'
p160
F8.63913849298412
sS'hygienist'
p161
F9.412328381217602
sS'estate'
p162
F5.7703658468914165
sS'household'
p163
F8.529939201019127
sS'india'
p164
F8.529939201019127
sS'surveyor'
p165
F4.624142435006079
sS'foods'
p166
F8.90150275745161
sS'woman'
p167
F9.700010453669382
sS'reviewing'
p168
F8.952796051839162
sS'want'
p169
F6.163893754107856
sS'cantonese'
p170
F9.700010453669382
sS'scheduling'
p171
F9.189184829903391
sS'appointment'
p172
F7.419898216527395
sS'parcel'
p173
F8.6783592061374
sS'turners'
p174
F8.313716092549491
sS'recovery'
p175
F6.773271051602342
sS'respected'
p176
F9.499339758207231
sS'travel'
p177
F5.150822902432227
sS'sharepoint'
p178
F6.21365526366692
sS'machine'
p179
F6.3678059434941785
sS'bodyshop'
p180
F8.090572541235282
sS'amazing'
p181
F7.6487397889562425
sS'writers'
p182
F9.332285673544064
sS'kidderminster'
p183
F9.12464630876582
sS'actionscript'
p184
F9.006863273109436
sS'interview'
p185
F7.408598661273461
sS'gate'
p186
F6.785247242649058
sS'yate'
p187
F9.594649938011555
sS'banbury'
p188
F8.529939201019127
sS'offshore'
p189
F7.663128526408342
sS'gaming'
p190
F7.1436448398992365
sS'rise'
p191
F6.709849225164847
sS'beauty'
p192
F7.332886839537765
sS'phlebotomist'
p193
F9.700010453669382
sS'lichfield'
p194
F9.412328381217602
sS'loyalty'
p195
F8.761740815076452
sS'londo'
p196
F3.263682038473169
sS'assitant'
p197
F9.189184829903391
sS'midlands'
p198
F5.684628935254083
sS'president'
p199
F8.90150275745161
sS'tourism'
p200
F8.761740815076452
sS'purchase'
p201
F6.039301876522142
sS'third'
p202
F9.12464630876582
sS'communities'
p203
F9.499339758207231
sS'mids'
p204
F8.85271259328218
sS'green'
p205
F7.109743288223555
sS'waitress'
p206
F8.719181200657657
sS'ambulance'
p207
F9.700010453669382
sS'plumbing'
p208
F7.819697587099882
sS'diary'
p209
F9.064021686949385
sS'order'
p210
F7.029700580550019
sS'wind'
p211
F5.4004600408197385
sS'wine'
p212
F8.952796051839162
sS'operations'
p213
F4.881522610518372
sS'salon'
p214
F8.63913849298412
sS'helens'
p215
F9.332285673544064
sS'frontend'
p216
F7.215103803881382
sS'office'
p217
F3.8779512380888086
sS'telecom'
p218
F6.3062480504947445
sS'london'
p219
F3.2649290324888596
sS'butcher'
p220
F9.594649938011555
sS'innovative'
p221
F8.431499128205875
sS'kong'
p222
F9.064021686949385
sS'hereford'
p223
F7.9852120255774555
sS'doncaster'
p224
F7.722847761109964
sS'sciences'
p225
F8.529939201019127
sS'heritage'
p226
F9.006863273109436
sS'pharma'
p227
F6.1934525563494
sS'personal'
p228
F5.805925148927903
sS'breeam'
p229
F9.594649938011555
sS'audiologist'
p230
F9.594649938011555
sS'auditors'
p231
F9.412328381217602
sS'writing'
p232
F7.663128526408342
sS'cipd'
p233
F9.499339758207231
sS'production'
p234
F5.025106929666616
sS'wales'
p235
F6.8865997369093455
sS'weeks'
p236
F9.700010453669382
sS'groovy'
p237
F9.412328381217602
sS'ccna'
p238
F7.9852120255774555
sS'ftse'
p239
F7.754100304614069
sS'similar'
p240
F9.332285673544064
sS'safe'
p241
F5.746632262559322
sS'pega'
p242
F9.594649938011555
sS'break'
p243
F7.31226755233503
sS'band'
p244
F5.8641488092068
sS'tenancy'
p245
F9.12464630876582
sS'therapy'
p246
F7.908250984441327
sS'schools'
p247
F7.945991312424174
sS'17th'
p248
F9.12464630876582
sS'hertfordshire'
p249
F6.375774113143355
sS'silver'
p250
F8.63913849298412
sS'bank'
p251
F5.12989190574021
sS'structural'
p252
F6.2308083428931695
sS'netherlands'
p253
F9.258177701390343
sS'meat'
p254
F9.332285673544064
sS'worthing'
p255
F8.601398165001273
sS'seamstress'
p256
F9.499339758207231
sS'investigator'
p257
F8.719181200657657
sS'ventilation'
p258
F8.719181200657657
sS'affiliate'
p259
F8.183662964301293
sS'fitness'
p260
F7.9852120255774555
sS'acoustic'
p261
F7.908250984441327
sS'loughborough'
p262
F8.761740815076452
sS'operatives'
p263
F7.620568911989547
sS'side'
p264
F5.054551748767179
sS'bond'
p265
F9.700010453669382
sS'schemes'
p266
F8.719181200657657
sS'financial'
p267
F4.29084764123295
sS'garment'
p268
F8.233673384875955
sS'contracting'
p269
F9.006863273109436
sS'dhabi'
p270
F9.12464630876582
sS'trading'
p271
F6.476700031733316
sS'hosted'
p272
F9.332285673544064
sS'laboratory'
p273
F7.431326912351017
sS'collector'
p274
F8.026034020097711
sS'hostel'
p275
F9.594649938011555
sS'virtualisation'
p276
F8.233673384875955
sS'network'
p277
F5.190372694402854
sS'driving'
p278
F7.566501690719271
sS'realtime'
p279
F8.63913849298412
sS'kuwait'
p280
F9.064021686949385
sS'diesel'
p281
F8.529939201019127
sS'trainers'
p282
F9.006863273109436
sS'fellows'
p283
F9.12464630876582
sS'content'
p284
F6.564516237740232
sS'companies'
p285
F9.499339758207231
sS'caerphilly'
p286
F9.412328381217602
sS'rare'
p287
F9.594649938011555
sS'reader'
p288
F8.13603491531204
sS'medicine'
p289
F7.945991312424174
sS'storeman'
p290
F9.332285673544064
sS'newly'
p291
F6.99939523105469
sS'clacton'
p292
F9.594649938011555
sS'strategist'
p293
F7.9852120255774555
sS'saudi'
p294
F8.90150275745161
sS'foundation'
p295
F8.026034020097711
sS'turning'
p296
F9.412328381217602
sS'merchandising'
p297
F7.692542411614635
sS'associate'
p298
F5.180640257484623
sS'free'
p299
F6.743943436507823
sS'standard'
p300
F7.9852120255774555
sS'campaigns'
p301
F8.313716092549491
sS'petrochemical'
p302
F9.064021686949385
sS'disputes'
p303
F9.332285673544064
sS'allocation'
p304
F9.700010453669382
sS'checked'
p305
F9.412328381217602
sS'sensors'
p306
F9.189184829903391
sS'wanted'
p307
F6.241243220185749
sS'certified'
p308
F8.761740815076452
sS'lothian'
p309
F9.12464630876582
sS'starts'
p310
F8.068593634516507
sS'privacy'
p311
F9.594649938011555
sS'days'
p312
F6.21365526366692
sS'steward'
p313
F8.63913849298412
sS'harrogate'
p314
F8.068593634516507
sS'tipper'
p315
F9.594649938011555
sS'machining'
p316
F8.90150275745161
sS'canterbury'
p317
F8.85271259328218
sS'reserving'
p318
F9.594649938011555
sS'camberley'
p319
F8.6783592061374
sS'gloucester'
p320
F6.41659610766361
sS'inspectors'
p321
F9.594649938011555
sS'rang'
p322
F8.233673384875955
sS'industrial'
p323
F6.234274550869656
sS'shopper'
p324
F8.719181200657657
sS'researcher'
p325
F7.126550406539937
sS'coding'
p326
F9.499339758207231
sS'primary'
p327
F5.085990652404308
sS'hearing'
p328
F7.908250984441327
sS'channels'
p329
F9.700010453669382
sS'hook'
p330
F9.332285673544064
sS'skegness'
p331
F9.258177701390343
sS'insulation'
p332
F9.700010453669382
sS'millers'
p333
F8.259648871279216
sS'electronic'
p334
F5.2417946806379545
sS'runcorn'
p335
F9.258177701390343
sS'agriculture'
p336
F8.90150275745161
sS'lister'
p337
F9.12464630876582
sS'service'
p338
F3.2507695038852247
sS'engagement'
p339
F7.01443310841923
sS'girls'
p340
F8.85271259328218
sS'fabrication'
p341
F8.529939201019127
sS'klive'
p342
F9.064021686949385
sS'needed'
p343
F5.34330162697979
sS'abap'
p344
F9.12464630876582
sS'master'
p345
F7.29206484501751
sS'burgess'
p346
F9.594649938011555
sS'cabling'
p347
F8.85271259328218
sS'southport'
p348
F8.6783592061374
sS'fitters'
p349
F8.090572541235282
sS'danish'
p350
F7.707580288979176
sS'rewards'
p351
F9.412328381217602
sS'overhead'
p352
F8.601398165001273
sS'tool'
p353
F6.113409848675864
sS'canvassers'
p354
F9.594649938011555
sS'avaya'
p355
F8.313716092549491
sS'solicitor'
p356
F5.5003053757894556
sS'western'
p357
F9.594649938011555
sS'scarborough'
p358
F9.006863273109436
sS'minibus'
p359
F9.594649938011555
sS'target'
p360
F9.594649938011555
sS'roles'
p361
F7.118111537894072
sS'nonlife'
p362
F9.12464630876582
sS'database'
p363
F5.831126940901854
sS'tree'
p364
F6.634544842100716
sS'covent'
p365
F6.822061215771774
sS'textiles'
p366
F9.12464630876582
sS'independant'
p367
F9.332285673544064
sS'project'
p368
F3.5004031962605477
sS'matter'
p369
F9.700010453669382
sS'fabulous'
p370
F9.189184829903391
sS'bridgwater'
p371
F9.412328381217602
sS'enabler'
p372
F9.594649938011555
sS'tipping'
p373
F9.064021686949385
sS'acquisition'
p374
F7.05304794454701
sS'virtualization'
p375
F9.594649938011555
sS'mini'
p376
F3.5193039069228718
sS'germanspeaking'
p377
F9.412328381217602
sS'fashion'
p378
F6.062424293942996
sS'rata'
p379
F8.63913849298412
sS'legionella'
p380
F8.40072746953912
sS'boston'
p381
F8.952796051839162
sS'huntingdon'
p382
F8.806192577647286
sS'modern'
p383
F7.54052620431601
sS'mine'
p384
F9.12464630876582
sS'childcare'
p385
F7.677727325829495
sS'resettlement'
p386
F9.700010453669382
sS'lunchtime'
p387
F9.332285673544064
sS'subjects'
p388
F9.412328381217602
sS'seek'
p389
F7.908250984441327
sS'farnham'
p390
F8.85271259328218
sS'affairs'
p391
F6.991960252567172
sS'adminstrator'
p392
F9.006863273109436
sS'sterile'
p393
F9.499339758207231
sS'concrete'
p394
F8.6783592061374
sS'firmware'
p395
F7.9852120255774555
sS'savings'
p396
F9.499339758207231
sS'casual'
p397
F7.161036582611106
sS'oriented'
p398
F9.700010453669382
sS'fitting'
p399
F9.189184829903391
sS'client'
p400
F5.302821571255823
sS'luxury'
p401
F5.941397661540771
sS'doors'
p402
F8.952796051839162
sS'educator'
p403
F8.761740815076452
sS'effectiveness'
p404
F9.594649938011555
sS'machinery'
p405
F8.183662964301293
sS'witney'
p406
F9.594649938011555
sS'transactions'
p407
F9.594649938011555
sS'oems'
p408
F9.499339758207231
sS'object'
p409
F7.566501690719271
sS'wells'
p410
F7.620568911989547
sS'translator'
p411
F9.006863273109436
sS'27001'
p412
F9.700010453669382
sS'regular'
p413
F9.12464630876582
sS'germany'
p414
F8.208355576891664
sS'locality'
p415
F9.064021686949385
sS'quantitative'
p416
F8.090572541235282
sS'phase'
p417
F9.189184829903391
sS'glos'
p418
F9.12464630876582
sS'bradford'
p419
F7.386375524488751
sS'clearance'
p420
F9.700010453669382
sS'istqb'
p421
F9.12464630876582
sS'fitter'
p422
F5.7703658468914165
sS'medical'
p423
F5.475612763199083
sS'camp'
p424
F6.540648756333589
sS'metal'
p425
F7.118111537894072
sS'twickenham'
p426
F9.12464630876582
sS'leaflet'
p427
F9.412328381217602
sS'curie'
p428
F9.700010453669382
sS'tech'
p429
F3.247786260468893
sS'principle'
p430
F7.27226221772133
sS'enterprise'
p431
F6.853809914086355
sS'consumer'
p432
F6.82833082878537
sS'derbyshire'
p433
F7.634555153964286
sS'dover'
p434
F8.463247826520455
sS'advisory'
p435
F8.13603491531204
sS'cooking'
p436
F9.499339758207231
sS'learner'
p437
F8.431499128205875
sS'meetings'
p438
F9.499339758207231
sS'advisors'
p439
F6.588967333604397
sS'sage'
p440
F7.722847761109964
sS'chartered'
p441
F7.634555153964286
sS'radio'
p442
F7.05304794454701
sS'solutions'
p443
F5.708970907923011
sS'shrewsbury'
p444
F8.496037649343446
sS'homewares'
p445
F9.006863273109436
sS'earth'
p446
F9.12464630876582
sS'analogue'
p447
F7.408598661273461
sS'eyfs'
p448
F8.341886969516187
sS'marketeer'
p449
F9.700010453669382
sS'semiskilled'
p450
F9.700010453669382
sS'reqd'
p451
F9.700010453669382
sS'busy'
p452
F7.754100304614069
sS'layout'
p453
F9.064021686949385
sS'emarketing'
p454
F7.045204767085984
sS'excavator'
p455
F8.565030520830398
sS'implementation'
p456
F6.433403225979991
sS'draughtsman'
p457
F8.005414732894975
sS'helpdesk'
p458
F6.472285013524199
sS'bluw'
p459
F9.700010453669382
sS'mens'
p460
F6.853809914086355
sS'geologist'
p461
F8.208355576891664
sS'screening'
p462
F8.496037649343446
sS'rich'
p463
F7.620568911989547
sS'inventor'
p464
F7.466418232162288
sS'palliative'
p465
F8.719181200657657
sS'continuity'
p466
F9.700010453669382
sS'ipad'
p467
F8.601398165001273
sS'comcat'
p468
F8.6783592061374
sS'professionals'
p469
F8.068593634516507
sS'asbestos'
p470
F6.379782134540894
sS'beater'
p471
F8.183662964301293
sS'fluid'
p472
F8.6783592061374
sS'leisure'
p473
F6.941407973404341
sS'coast'
p474
F7.7863611668322905
sS'ecologist'
p475
F8.026034020097711
sS'competitive'
p476
F8.719181200657657
sS'wedding'
p477
F9.006863273109436
sS'report'
p478
F5.913298750318411
sS'onboard'
p479
F9.12464630876582
sS'leamington'
p480
F8.208355576891664
sS'furnishings'
p481
F9.499339758207231
sS'earn'
p482
F5.159082536409644
sS'uncapped'
p483
F7.302115180871011
sS'covering'
p484
F8.496037649343446
sS'plush'
p485
F9.700010453669382
sS'droitwich'
p486
F9.332285673544064
sS'architecture'
p487
F7.836792020459182
sS'corrosion'
p488
F9.412328381217602
sS'analytical'
p489
F7.722847761109964
sS'fertility'
p490
F9.594649938011555
sS'largs'
p491
F9.499339758207231
sS'secretary'
p492
F5.542864990208251
sS'leasing'
p493
F9.064021686949385
sS'mandarin'
p494
F8.496037649343446
sS'branding'
p495
F8.529939201019127
sS'wetherby'
p496
F9.258177701390343
sS'testing'
p497
F7.4905157837413485
sS'woolwich'
p498
F9.499339758207231
sS'analytics'
p499
F6.906802444226865
sS'brasserie'
p500
F7.566501690719271
sS'best'
p501
F6.223911763834109
sS'subject'
p502
F8.341886969516187
sS'lancaster'
p503
F9.12464630876582
sS'romford'
p504
F8.159565412722234
sS'combustion'
p505
F8.529939201019127
sS'capacity'
p506
F9.412328381217602
sS'michelin'
p507
F6.879955194190677
sS'propulsion'
p508
F9.332285673544064
sS'delphi'
p509
F8.806192577647286
sS'interviewing'
p510
F9.332285673544064
sS'compensation'
p511
F8.068593634516507
sS'machinists'
p512
F8.85271259328218
sS'payroller'
p513
F9.189184829903391
sS'occupational'
p514
F5.8859678566014395
sS'toolmaker'
p515
F7.187704829693267
sS'glasgow'
p516
F6.53125901598375
sS'receptionists'
p517
F9.594649938011555
sS'discipline'
p518
F9.258177701390343
sS'nationwide'
p519
F7.854183763171052
sS'hitchin'
p520
F9.499339758207231
sS'stakeholder'
p521
F9.258177701390343
sS'physicist'
p522
F8.026034020097711
sS'paper'
p523
F9.499339758207231
sS'cards'
p524
F8.806192577647286
sS'html5'
p525
F7.006885902783847
sS'beautician'
p526
F9.499339758207231
sS'news'
p527
F8.806192577647286
sS'packager'
p528
F8.37087450638944
sS'debt'
p529
F7.233795936893534
sS'roller'
p530
F4.676861194281652
sS'kitchen'
p531
F6.047910251058743
sS'behaviour'
p532
F8.463247826520455
sS'planner'
p533
F5.080499150410633
sS'flooring'
p534
F9.412328381217602
sS'country'
p535
F7.27226221772133
sS'banksman'
p536
F8.601398165001273
sS'heating'
p537
F7.2528441318642285
sS'chassis'
p538
F9.189184829903391
sS'estates'
p539
F7.77010064596051
sS'photographer'
p540
F9.499339758207231
sS'operating'
p541
F7.945991312424174
sS'expense'
p542
F8.90150275745161
sS'northants'
p543
F9.594649938011555
sS'typist'
p544
F8.37087450638944
sS'prospect'
p545
F8.37087450638944
sS'deafblind'
p546
F8.601398165001273
sS'betting'
p547
F9.189184829903391
sS'loader'
p548
F8.761740815076452
sS'specialism'
p549
F8.85271259328218
sS'hygiene'
p550
F7.819697587099882
sS'trust'
p551
F7.593169937801432
sS'telecommunications'
p552
F8.005414732894975
sS'speak'
p553
F5.049229756429239
sS'conference'
p554
F6.866797109613166
sS'bathroom'
p555
F8.952796051839162
sS'roofer'
p556
F9.700010453669382
sS'billing'
p557
F7.54052620431601
sS'basis'
p558
F8.90150275745161
sS'enginee'
p559
F2.2360738492004573
sS'commission'
p560
F6.481134628801182
sS'sommelier'
p561
F9.006863273109436
sS'interest'
p562
F9.006863273109436
sS'basic'
p563
F6.512739968216512
sS'flexible'
p564
F8.047087429295543
sS'lovely'
p565
F8.431499128205875
sS'duties'
p566
F9.594649938011555
sS'location'
p567
F6.927421731429601
sS'website'
p568
F7.397425360675337
sS'cambs'
p569
F8.601398165001273
sS'life'
p570
F6.634544842100716
sS'families'
p571
F8.13603491531204
sS'eastern'
p572
F9.700010453669382
sS'worker'
p573
F3.881907721983883
sS'catering'
p574
F6.14149281741869
sS'craft'
p575
F7.6487397889562425
sS'hoist'
p576
F9.700010453669382
sS'paralegals'
p577
F9.700010453669382
sS'child'
p578
F5.446764608861425
sS'aviation'
p579
F8.565030520830398
sS'kote'
p580
F8.63913849298412
sS'commerce'
p581
F5.700790903211081
sS'openings'
p582
F8.463247826520455
sS'tank'
p583
F8.761740815076452
sS'inpatient'
p584
F8.601398165001273
sS'easter'
p585
F9.006863273109436
sS'nordic'
p586
F9.332285673544064
sS'connectors'
p587
F9.258177701390343
sS'amersham'
p588
F9.412328381217602
sS'dept'
p589
F9.594649938011555
sS'near'
p590
F7.322524052502219
sS'teachers'
p591
F5.672676601730242
sS'homeworking'
p592
F9.700010453669382
sS'appeals'
p593
F9.332285673544064
sS'forwarder'
p594
F9.412328381217602
sS'voice'
p595
F7.397425360675337
sS'procedure'
p596
F9.412328381217602
sS'pastry'
p597
F6.234274550869656
sS'biotech'
p598
F9.412328381217602
sS'seven'
p599
F8.431499128205875
sS'cons'
p600
F3.051313797701582
sS'expat'
p601
F8.208355576891664
sS'accessories'
p602
F7.707580288979176
sS'expenses'
p603
F9.258177701390343
sS'player'
p604
F9.006863273109436
sS'brake'
p605
F8.496037649343446
sS'maidstone'
p606
F7.302115180871011
sS'exterior'
p607
F9.700010453669382
sS'hebrew'
p608
F9.594649938011555
sS'electromechanical'
p609
F7.819697587099882
sS'march'
p610
F8.529939201019127
sS'pathology'
p611
F9.064021686949385
sS'dumper'
p612
F8.005414732894975
sS'sensory'
p613
F9.700010453669382
sS'bricklayer'
p614
F7.889901845773131
sS'hong'
p615
F9.006863273109436
sS'multioutlet'
p616
F8.952796051839162
sS'ccnp'
p617
F7.553429609151918
sS'patent'
p618
F9.258177701390343
sS'make'
p619
F6.660793068175653
sS'wound'
p620
F9.258177701390343
sS'bella'
p621
F9.258177701390343
sS'complex'
p622
F7.7863611668322905
sS'quant'
p623
F5.012748378962819
sS'inventory'
p624
F7.819697587099882
sS'plater'
p625
F8.63913849298412
sS'electro'
p626
F5.126445607096622
sS'mcse'
p627
F8.761740815076452
sS'european'
p628
F6.840989225657293
sS'wheel'
p629
F9.189184829903391
sS'independent'
p630
F7.1436448398992365
sS'satellite'
p631
F9.189184829903391
sS'instructors'
p632
F9.412328381217602
sS'juniper'
p633
F8.40072746953912
sS'welsh'
p634
F8.761740815076452
sS'pick'
p635
F7.754100304614069
sS'rail'
p636
F6.2377528152459805
sS'workforce'
p637
F9.006863273109436
sS'hand'
p638
F5.131043316345251
sS'pubs'
p639
F8.90150275745161
sS'norwegian'
p640
F7.6487397889562425
sS'portal'
p641
F9.064021686949385
sS'boiler'
p642
F8.952796051839162
sS'opportunity'
p643
F5.959698825923175
sS'cycle'
p644
F8.431499128205875
sS'afcila'
p645
F9.412328381217602
sS'acoustics'
p646
F9.006863273109436
sS'cultural'
p647
F8.208355576891664
sS'litigator'
p648
F9.412328381217602
sS'ocean'
p649
F8.952796051839162
sS'academic'
p650
F8.37087450638944
sS'charity'
p651
F6.55490077904079
sS'contact'
p652
F6.9845801452695495
sS'benifits'
p653
F9.700010453669382
sS'mother'
p654
F8.463247826520455
sS'claims'
p655
F6.053690613974242
sS'obiee'
p656
F8.026034020097711
sS'corporate'
p657
F5.323554864044956
sS'investments'
p658
F8.63913849298412
sS'seasonal'
p659
F8.026034020097711
sS'unified'
p660
F8.431499128205875
sS'solaris'
p661
F8.719181200657657
sS'wokefield'
p662
F8.806192577647286
sS'sporting'
p663
F9.499339758207231
sS'newton'
p664
F8.806192577647286
sS'fareham'
p665
F8.047087429295543
sS'therapeutic'
p666
F9.258177701390343
sS'cumbria'
p667
F7.819697587099882
sS'birmingham'
p668
F5.490355044936287
sS'human'
p669
F6.644961602958972
sS'buyers'
p670
F9.12464630876582
sS'sonographer'
p671
F8.37087450638944
sS'belfast'
p672
F7.161036582611106
sS'greenwich'
p673
F8.85271259328218
sS'candidate'
p674
F8.761740815076452
sS'dining'
p675
F7.05304794454701
sS'aberdeenshire'
p676
F8.90150275745161
sS'agile'
p677
F6.036448807539736
sS'royal'
p678
F8.806192577647286
sS'pharmacy'
p679
F7.692542411614635
sS'reservationist'
p680
F9.499339758207231
sS'collections'
p681
F6.860282428591972
sS'board'
p682
F7.593169937801432
sS'prison'
p683
F8.13603491531204
sS'east'
p684
F5.023036535552307
sS'semiconductors'
p685
F9.700010453669382
sS'designate'
p686
F7.060953124054124
sS'casting'
p687
F8.026034020097711
sS'teddington'
p688
F9.594649938011555
sS'sussex'
p689
F6.22048122873732
sS'possible'
p690
F9.332285673544064
sS'objective'
p691
F8.6783592061374
sS'supervisors'
p692
F7.819697587099882
sS'fulham'
p693
F8.40072746953912
sS'background'
p694
F7.7863611668322905
sS'newcastle'
p695
F6.866797109613166
sS'supervisory'
p696
F9.412328381217602
sS'designers'
p697
F8.159565412722234
sS'advanced'
p698
F7.52778717853858
sS'stylist'
p699
F8.13603491531204
sS'salesperson'
p700
F9.412328381217602
sS'stortford'
p701
F9.594649938011555
sS'gift'
p702
F8.601398165001273
sS'manual'
p703
F7.1436448398992365
sS'middlesbrough'
p704
F8.529939201019127
sS'accrington'
p705
F9.700010453669382
sS'specific'
p706
F7.722847761109964
sS'kentico'
p707
F9.412328381217602
sS'offices'
p708
F9.700010453669382
sS'officer'
p709
F4.191522207111174
sS'night'
p710
F5.319373673284555
sS'security'
p711
F5.12186894006921
sS'reseller'
p712
F8.63913849298412
sS'worldwide'
p713
F8.40072746953912
sS'attorney'
p714
F9.12464630876582
sS'right'
p715
F6.822061215771774
sS'dean'
p716
F9.700010453669382
sS'appliances'
p717
F9.332285673544064
sS'deal'
p718
F6.55490077904079
sS'people'
p719
F6.99939523105469
sS'czech'
p720
F8.952796051839162
sS'deaf'
p721
F8.286317118361376
sS'elderly'
p722
F6.383806284840619
sS'transaction'
p723
F8.026034020097711
sS'consultants'
p724
F5.989152092836671
sS'intern'
p725
F4.635307938302851
sS'invoice'
p726
F8.85271259328218
sS'telehandler'
p727
F9.064021686949385
sS'indirect'
p728
F8.233673384875955
sS'sociology'
p729
F9.499339758207231
sS'alton'
p730
F8.952796051839162
sS'daytime'
p731
F9.332285673544064
sS'creative'
p732
F6.517337677465142
sS'heathrow'
p733
F8.005414732894975
sS'strada'
p734
F9.258177701390343
sS'booking'
p735
F8.90150275745161
sS'core'
p736
F7.553429609151918
sS'algorithmic'
p737
F9.499339758207231
sS'yorks'
p738
F5.876211681656075
sS'fish'
p739
F9.258177701390343
sS'subscriptions'
p740
F9.594649938011555
sS'marketing'
p741
F3.842394809904577
sS'dental'
p742
F6.732449057082087
sS'testers'
p743
F9.499339758207231
sS'graduates'
p744
F7.579746917469291
sS'restructuring'
p745
F8.952796051839162
sS'cheadle'
p746
F9.412328381217602
sS'architectural'
p747
F7.945991312424174
sS'keeper'
p748
F6.420771479074091
sS'brokerage'
p749
F8.565030520830398
sS'post'
p750
F6.588967333604397
sS'manufacturing'
p751
F5.467515552966464
sS'bury'
p752
F5.97297923359107
sS'months'
p753
F6.273217524818263
sS'solihull'
p754
F8.026034020097711
sS'paraplanner'
p755
F7.29206484501751
sS'magazine'
p756
F8.806192577647286
sS'plus'
p757
F6.10117728024023
sS'algo'
p758
F8.068593634516507
sS'craftsman'
p759
F9.594649938011555
sS'bluo'
p760
F9.12464630876582
sS'islands'
p761
F9.594649938011555
sS'laminator'
p762
F9.258177701390343
sS'curry'
p763
F9.594649938011555
sS'commis'
p764
F5.817301835910011
sS'directorate'
p765
F9.700010453669382
sS'consulting'
p766
F7.9852120255774555
sS'managers'
p767
F6.022304300153571
sS'resourcing'
p768
F7.4905157837413485
sS'civil'
p769
F6.0083570726727205
sS'float'
p770
F8.047087429295543
sS'intellectual'
p771
F9.12464630876582
sS'bath'
p772
F6.955592608396297
sS'complaints'
p773
F8.047087429295543
sS'ecology'
p774
F9.700010453669382
sS'salisbury'
p775
F8.208355576891664
sS'coastal'
p776
F9.412328381217602
sS'morecambe'
p777
F9.412328381217602
sS'cardiff'
p778
F6.773271051602342
sS'amsterdam'
p779
F9.499339758207231
sS'soon'
p780
F9.499339758207231
sS'crewe'
p781
F8.208355576891664
sS'america'
p782
F8.233673384875955
sS'fabric'
p783
F6.682299273396616
sS'support'
p784
F3.3730662258529387
sS'initial'
p785
F9.064021686949385
sS'legislation'
p786
F9.594649938011555
sS'payment'
p787
F7.29206484501751
sS'clinical'
p788
F5.370740171434812
sS'wordpress'
p789
F8.90150275745161
sS'editor'
p790
F7.1436448398992365
sS'joiners'
p791
F9.412328381217602
sS'chertsey'
p792
F9.258177701390343
sS'music'
p793
F6.948475140627433
sS'accountancy'
p794
F7.353940248735597
sS'fork'
p795
F7.093213986272345
sS'head'
p796
F4.05299431286379
sS'medium'
p797
F8.806192577647286
sS'fpga'
p798
F7.2058871487764575
sS'cima'
p799
F8.496037649343446
sS'ford'
p800
F4.300842726941405
sS'wireless'
p801
F8.259648871279216
sS'buckingham'
p802
F6.809638695773217
sS'heat'
p803
F5.6608654408018975
sS'solar'
p804
F7.353940248735597
sS'syndicate'
p805
F8.85271259328218
sS'anaesthetic'
p806
F7.332886839537765
sS'infor'
p807
F5.821888999916918
sS'analyst'
p808
F3.2702909756302447
sS'fort'
p809
F9.064021686949385
sS'counsel'
p810
F8.529939201019127
sS'injury'
p811
F6.977254105177477
sS'streaming'
p812
F9.006863273109436
sS'centos'
p813
F9.499339758207231
sS'inside'
p814
F7.161036582611106
sS'herefordshire'
p815
F9.332285673544064
sS'bids'
p816
F8.85271259328218
sS'devices'
p817
F7.819697587099882
sS'plasterer'
p818
F8.90150275745161
sS'crystal'
p819
F9.12464630876582
sS'plymouth'
p820
F7.593169937801432
sS'economic'
p821
F7.9269431174534795
sS'pest'
p822
F8.565030520830398
sS'paediatrics'
p823
F8.529939201019127
sS'emis'
p824
F6.355971485847175
sS'optimisation'
p825
F8.159565412722234
sS'lates'
p826
F9.12464630876582
sS'trim'
p827
F8.005414732894975
sS'tonne'
p828
F7.754100304614069
sS'computing'
p829
F8.601398165001273
sS'xenapp'
p830
F9.412328381217602
sS'facilitator'
p831
F8.068593634516507
sS'drive'
p832
F4.724810453880757
sS'telecoms'
p833
F6.655488015945959
sS'accounting'
p834
F6.955592608396297
sS'ship'
p835
F5.063126292191763
sS'dealer'
p836
F6.6714883572924
sS'physical'
p837
F7.908250984441327
sS'looked'
p838
F8.6783592061374
sS'merseyside'
p839
F7.871883340270452
sS'floor'
p840
F7.566501690719271
sS'cardiology'
p841
F9.332285673544064
sS'excel'
p842
F5.959698825923175
sS'negotiators'
p843
F9.189184829903391
sS'successful'
p844
F8.719181200657657
sS'setting'
p845
F8.463247826520455
sS'role'
p846
F5.759507976919367
sS'ambitious'
p847
F8.313716092549491
sS'digital'
p848
F4.617226778121414
sS'warehouse'
p849
F5.821888999916918
sS'implant'
p850
F9.258177701390343
sS'developers'
p851
F6.420771479074091
sS'roll'
p852
F4.283416346196973
sS'mentor'
p853
F8.601398165001273
sS'insolvency'
p854
F8.208355576891664
sS'truro'
p855
F8.85271259328218
sS'initio'
p856
F9.064021686949385
sS'center'
p857
F8.286317118361376
sS'utilities'
p858
F7.634555153964286
sS'devon'
p859
F7.215103803881382
sS'rolling'
p860
F8.719181200657657
sS'stoke'
p861
F6.732449057082087
sS'weekend'
p862
F6.906802444226865
sS'tivoli'
p863
F9.258177701390343
sS'glass'
p864
F8.85271259328218
sS'telescopic'
p865
F8.6783592061374
sS'joinery'
p866
F8.806192577647286
sS'yacht'
p867
F9.700010453669382
sS'daily'
p868
F9.700010453669382
sS'liquidity'
p869
F8.806192577647286
sS'beds'
p870
F9.064021686949385
sS'subscription'
p871
F9.258177701390343
sS'reception'
p872
F5.414127679548403
sS'time'
p873
F4.515733136498895
sS'matlock'
p874
F9.12464630876582
sS'parcels'
p875
F9.412328381217602
sS'paced'
p876
F9.594649938011555
sS'mammographer'
p877
F9.594649938011555
sS'coach'
p878
F7.29206484501751
sS'managed'
p879
F7.634555153964286
sS'matron'
p880
F9.594649938011555
sS'chain'
p881
F5.920884121707668
sS'dance'
p882
F8.496037649343446
sS'skip'
p883
F8.806192577647286
sS'global'
p884
F5.283850812626042
sS'focus'
p885
F7.7863611668322905
sS'urban'
p886
F9.594649938011555
sS'leads'
p887
F8.85271259328218
sS'manager'
p888
F1.5864839884199295
sS'lloyds'
p889
F9.12464630876582
sS'skin'
p890
F9.332285673544064
sS'teesside'
p891
F9.700010453669382
sS'mill'
p892
F6.128914035211829
sS'telemarketing'
p893
F7.109743288223555
sS'retention'
p894
F7.889901845773131
sS'disorders'
p895
F9.594649938011555
sS'freelance'
p896
F7.169847212293261
sS'flash'
p897
F7.663128526408342
sS'amusements'
p898
F9.700010453669382
sS'hamlets'
p899
F9.332285673544064
sS'environment'
p900
F6.086094038028901
sS'lotus'
p901
F9.700010453669382
sS'charge'
p902
F6.822061215771774
sS'electricity'
p903
F9.006863273109436
sS'managment'
p904
F9.189184829903391
sS'oversight'
p905
F9.412328381217602
sS'southwest'
p906
F9.499339758207231
sS'appsense'
p907
F9.700010453669382
sS'adviser'
p908
F6.352057586526039
sS'grill'
p909
F8.601398165001273
sS'consolidation'
p910
F9.700010453669382
sS'choice'
p911
F9.499339758207231
sS'liability'
p912
F7.620568911989547
sS'tunbridge'
p913
F7.722847761109964
sS'servicing'
p914
F8.6783592061374
sS'artwork'
p915
F7.819697587099882
sS'cook'
p916
F6.913628409297265
sS'word'
p917
F8.313716092549491
sS'cool'
p918
F8.40072746953912
sS'rotating'
p919
F9.189184829903391
sS'respiratory'
p920
F8.565030520830398
sS'level'
p921
F5.558640952802419
sS'cleaners'
p922
F8.40072746953912
sS'posts'
p923
F7.77010064596051
sS'wakefield'
p924
F8.005414732894975
sS'standards'
p925
F8.431499128205875
sS'leave'
p926
F8.806192577647286
sS'prototype'
p927
F9.412328381217602
sS'shuttering'
p928
F8.6783592061374
sS'excellence'
p929
F8.952796051839162
sS'participation'
p930
F9.412328381217602
sS'team'
p931
F4.199659684203258
sS'postdoctoral'
p932
F8.047087429295543
sS'ealing'
p933
F7.9269431174534795
sS'round'
p934
F5.981032968398166
sS'postcode'
p935
F9.006863273109436
sS'upper'
p936
F9.499339758207231
sS'revolution'
p937
F9.332285673544064
sS'trend'
p938
F8.565030520830398
sS'aftermarket'
p939
F9.594649938011555
sS'teradata'
p940
F9.006863273109436
sS'literature'
p941
F9.700010453669382
sS'sign'
p942
F3.5620434475723983
sS'cost'
p943
F6.437649516861443
sS'stamford'
p944
F9.700010453669382
sS'advocacy'
p945
F9.12464630876582
sS'booster'
p946
F8.952796051839162
sS'trent'
p947
F7.6487397889562425
sS'patient'
p948
F7.31226755233503
sS'port'
p949
F3.0158154794977974
sS'drinks'
p950
F8.952796051839162
sS'cargo'
p951
F9.332285673544064
sS'storesperson'
p952
F9.700010453669382
sS'hertford'
p953
F6.273217524818263
sS'scaffold'
p954
F8.90150275745161
sS'supporter'
p955
F8.952796051839162
sS'current'
p956
F9.189184829903391
sS'ssis'
p957
F2.9399820867167006
sS'international'
p958
F5.750905773336704
sS'corby'
p959
F9.006863273109436
sS'principal'
p960
F5.527334048177375
sS'boost'
p961
F8.761740815076452
sS'statistician'
p962
F8.63913849298412
sS'scada'
p963
F8.37087450638944
sS'collateral'
p964
F8.761740815076452
sS'mechanic'
p965
F4.164865808721213
sS'livein'
p966
F7.871883340270452
sS'clerk'
p967
F5.414127679548403
sS'handyman'
p968
F8.952796051839162
sS'goole'
p969
F9.700010453669382
sS'french'
p970
F5.774742221491215
sS'water'
p971
F6.027938117871827
sS'groups'
p972
F8.806192577647286
sS'drafter'
p973
F9.258177701390343
sS'apache'
p974
F8.37087450638944
sS'pastoral'
p975
F9.332285673544064
sS'cork'
p976
F8.341886969516187
sS'teacher'
p977
F3.650014978260372
sS'change'
p978
F6.019499249225962
sS'knowledge'
p979
F8.719181200657657
sS'walling'
p980
F9.064021686949385
sS'navision'
p981
F8.565030520830398
sS'brilliant'
p982
F9.006863273109436
sS'shift'
p983
F5.495317834278416
sS'dublin'
p984
F7.620568911989547
sS'finnish'
p985
F8.37087450638944
sS'cambridgeshire'
p986
F6.840989225657293
sS'newmarket'
p987
F9.412328381217602
sS'christchurch'
p988
F8.952796051839162
sS'hospitality'
p989
F6.535942865296176
sS'chesterfield'
p990
F8.37087450638944
sS'studies'
p991
F7.692542411614635
sS'homeware'
p992
F8.496037649343446
sS'beautiful'
p993
F8.601398165001273
sS'love'
p994
F8.11304539708734
sS'stockton'
p995
F8.463247826520455
sS'extra'
p996
F8.496037649343446
sS'taunton'
p997
F7.9269431174534795
sS'lending'
p998
F8.159565412722234
sS'regeneration'
p999
F9.12464630876582
sS'macclesfield'
p1000
F8.047087429295543
sS'womenswear'
p1001
F8.313716092549491
sS'durham'
p1002
F7.802890468783501
sS'watford'
p1003
F7.419898216527395
sS'licensing'
p1004
F8.529939201019127
sS'southall'
p1005
F9.700010453669382
sS'employer'
p1006
F7.386375524488751
sS'crisis'
p1007
F9.700010453669382
sS'market'
p1008
F3.664794872535265
sS'hotels'
p1009
F8.806192577647286
sS'rotherham'
p1010
F8.37087450638944
sS'urology'
p1011
F8.6783592061374
sS'wealth'
p1012
F8.233673384875955
sS'working'
p1013
F6.767336316082528
sS'super'
p1014
F4.530789882678002
sS'edmunds'
p1015
F8.565030520830398
sS'perm'
p1016
F5.26655164536323
sS'sports'
p1017
F6.873354510159325
sS'dundee'
p1018
F8.63913849298412
sS'live'
p1019
F4.78735556793333
sS'handler'
p1020
F5.978341176732455
sS'ballymena'
p1021
F9.700010453669382
sS'iphone'
p1022
F7.871883340270452
sS'slough'
p1023
F7.109743288223555
sS'conveyors'
p1024
F9.700010453669382
sS'conservation'
p1025
F9.499339758207231
sS'prep'
p1026
F8.529939201019127
sS'today'
p1027
F8.431499128205875
sS'club'
p1028
F6.99939523105469
sS'curriculum'
p1029
F8.761740815076452
sS'cashier'
p1030
F7.224406196543695
sS'fuel'
p1031
F8.90150275745161
sS'visual'
p1032
F6.682299273396616
sS'mansfield'
p1033
F9.189184829903391
sS'insights'
p1034
F9.006863273109436
sS'instructional'
p1035
F9.594649938011555
sS'graphic'
p1036
F6.4419139156479
sS'kbonus'
p1037
F9.412328381217602
sS'flagship'
p1038
F8.159565412722234
sS'sous'
p1039
F5.2469559824181795
sS'winforms'
p1040
F7.945991312424174
sS'valuer'
p1041
F8.286317118361376
sS'stewards'
p1042
F9.499339758207231
sS'keynes'
p1043
F6.608968000311066
sS'growing'
p1044
F7.52778717853858
sS'claim'
p1045
F6.013912642517322
sS'dedicated'
p1046
F9.258177701390343
sS'headhunting'
p1047
F9.700010453669382
sS'nursing'
p1048
F5.30145451704429
sS'expanding'
p1049
F8.952796051839162
sS'chip'
p1050
F7.397425360675337
sS'licensed'
p1051
F9.332285673544064
sS'vauxhall'
p1052
F8.719181200657657
sS'agent'
p1053
F5.2521440614999575
sS'concierge'
p1054
F8.85271259328218
sS'stroke'
p1055
F9.332285673544064
sS'council'
p1056
F9.006863273109436
sS'perioperative'
p1057
F9.700010453669382
sS'chic'
p1058
F7.593169937801432
sS'chiswick'
p1059
F9.412328381217602
sS'cardio'
p1060
F8.233673384875955
sS'swedish'
p1061
F7.707580288979176
sS'monitoring'
p1062
F7.364635537852346
sS'dialysis'
p1063
F8.90150275745161
sS'secured'
p1064
F8.529939201019127
sS'armagh'
p1065
F8.90150275745161
sS'chemical'
p1066
F7.29206484501751
sS'sunday'
p1067
F8.719181200657657
sS'hydrologist'
p1068
F9.700010453669382
sS'xhtml'
p1069
F8.431499128205875
sS'wintel'
p1070
F7.871883340270452
sS'knutsford'
p1071
F9.499339758207231
sS'banker'
p1072
F9.258177701390343
sS'edinburgh'
p1073
F6.467889402051161
sS'product'
p1074
F4.225408233126821
sS'designer'
p1075
F4.835043398719045
sS'laundry'
p1076
F8.090572541235282
sS'cocktail'
p1077
F9.12464630876582
sS'huge'
p1078
F8.6783592061374
sS'petrochem'
p1079
F8.85271259328218
sS'reps'
p1080
F9.064021686949385
sS'southern'
p1081
F8.6783592061374
sS'needs'
p1082
F7.593169937801432
sS'grounds'
p1083
F8.6783592061374
sS'applications'
p1084
F6.0167020446049015
sS'membership'
p1085
F7.243274680848078
sS'produce'
p1086
F7.085050675633184
sS'courses'
p1087
F9.594649938011555
sS'date'
p1088
F8.11304539708734
sS'apprenticeship'
p1089
F7.215103803881382
sS'data'
p1090
F4.496003766592587
sS'lifting'
p1091
F9.499339758207231
sS'classroom'
p1092
F9.064021686949385
sS'carmarthen'
p1093
F9.499339758207231
sS'opto'
p1094
F5.7445023363014975
sS'natural'
p1095
F9.412328381217602
sS'commodity'
p1096
F7.663128526408342
sS'bexhillonsea'
p1097
F9.594649938011555
sS'fluent'
p1098
F7.375446453956561
sS'switch'
p1099
F8.259648871279216
sS'truck'
p1100
F7.51520839633172
sS'sonographers'
p1101
F9.189184829903391
sS'docklands'
p1102
F9.412328381217602
sS'exclusive'
p1103
F8.183662964301293
sS'oncology'
p1104
F7.6487397889562425
sS'gatwick'
p1105
F8.952796051839162
sS'northampton'
p1106
F6.666126414151015
sS'canary'
p1107
F8.6783592061374
sS'years'
p1108
F6.574225051867193
sS'course'
p1109
F8.159565412722234
sS'closers'
p1110
F9.700010453669382
sS'statistical'
p1111
F8.183662964301293
sS'pitch'
p1112
F9.258177701390343
sS'immed'
p1113
F5.389957318620589
sS'cold'
p1114
F8.286317118361376
sS'group'
p1115
F5.2678717775681525
sS'rosette'
p1116
F5.803665260960466
sS'apex'
p1117
F9.332285673544064
sS'wrexham'
p1118
F9.064021686949385
sS'organisation'
p1119
F7.566501690719271
sS'facility'
p1120
F9.332285673544064
sS'enrolment'
p1121
F9.189184829903391
sS'yorkshire'
p1122
F5.943991696717817
sS'forms'
p1123
F7.419898216527395
sS'platform'
p1124
F7.51520839633172
sS'window'
p1125
F5.847501575773644
sS'policy'
p1126
F7.118111537894072
sS'mail'
p1127
F7.224406196543695
sS'main'
p1128
F4.522606015786656
sS'norway'
p1129
F9.700010453669382
sS'cutter'
p1130
F8.6783592061374
sS'prime'
p1131
F9.332285673544064
sS'finance'
p1132
F4.225874107814958
sS'sorter'
p1133
F9.064021686949385
sS'records'
p1134
F8.719181200657657
sS'qualified'
p1135
F5.116177405069422
sS'torquay'
p1136
F8.85271259328218
sS'drilling'
p1137
F8.431499128205875
sS'half'
p1138
F8.806192577647286
sS'pipefitter'
p1139
F8.952796051839162
sS'provision'
p1140
F9.189184829903391
sS'hall'
p1141
F7.332886839537765
sS'term'
p1142
F5.759507976919367
sS'flexi'
p1143
F7.707580288979176
sS'name'
p1144
F9.700010453669382
sS'wandsworth'
p1145
F8.6783592061374
sS'opera'
p1146
F3.9648728766658503
sS'january'
p1147
F8.159565412722234
sS'repairer'
p1148
F9.064021686949385
sS'drop'
p1149
F7.722847761109964
sS'geotechnical'
p1150
F7.2528441318642285
sS'babysitter'
p1151
F9.258177701390343
sS'fanuc'
p1152
F9.12464630876582
sS'firewall'
p1153
F9.006863273109436
sS'microbiologist'
p1154
F9.332285673544064
sS'mould'
p1155
F7.579746917469291
sS'castleford'
p1156
F9.064021686949385
sS'zurich'
p1157
F9.700010453669382
sS'divisional'
p1158
F7.945991312424174
sS'tailormade'
p1159
F8.90150275745161
sS'implementer'
p1160
F9.700010453669382
sS'hospice'
p1161
F9.332285673544064
sS'trademark'
p1162
F9.412328381217602
sS'year'
p1163
F5.064203298219401
sS'distributor'
p1164
F8.529939201019127
sS'teams'
p1165
F9.332285673544064
sS'rosettes'
p1166
F7.126550406539937
sS'neighbourhood'
p1167
F8.463247826520455
sS'carlisle'
p1168
F8.37087450638944
sS'living'
p1169
F7.375446453956561
sS'assessors'
p1170
F8.529939201019127
sS'foodservice'
p1171
F9.594649938011555
sS'space'
p1172
F6.650210958845116
sS'profit'
p1173
F8.85271259328218
sS'noncontentious'
p1174
F9.594649938011555
sS'lawyers'
p1175
F9.258177701390343
sS'factory'
p1176
F7.9269431174534795
sS'looking'
p1177
F7.4905157837413485
sS'thirsk'
p1178
F9.189184829903391
sS'investigation'
p1179
F9.006863273109436
sS'kent'
p1180
F6.077152100653239
sS'internet'
p1181
F7.871883340270452
sS'showroom'
p1182
F8.259648871279216
sS'assurance'
p1183
F6.147842045097348
sS'hibernate'
p1184
F8.37087450638944
sS'hairdresser'
p1185
F9.700010453669382
sS'hull'
p1186
F7.224406196543695
sS'tamworth'
p1187
F9.189184829903391
sS'cissp'
p1188
F8.806192577647286
sS'incentives'
p1189
F9.006863273109436
sS'studentships'
p1190
F9.594649938011555
sS'diagnostic'
p1191
F8.208355576891664
sS'ajax'
p1192
F8.259648871279216
sS'fusion'
p1193
F9.064021686949385
sS'marine'
p1194
F7.076953465400565
sS'accommodation'
p1195
F7.871883340270452
sS'card'
p1196
F6.203502892202902
sS'care'
p1197
F3.626709935950531
sS'advance'
p1198
F7.29206484501751
sS'training'
p1199
F5.7318171767741815
sS'language'
p1200
F6.743943436507823
sS'connectivity'
p1201
F9.412328381217602
sS'waiter'
p1202
F8.208355576891664
sS'transition'
p1203
F7.871883340270452
sS'programming'
p1204
F8.6783592061374
sS'british'
p1205
F7.7863611668322905
sS'motion'
p1206
F7.126550406539937
sS'turn'
p1207
F6.21365526366692
sS'funky'
p1208
F8.85271259328218
sS'livingston'
p1209
F9.189184829903391
sS'place'
p1210
F7.889901845773131
sS'footwear'
p1211
F8.13603491531204
sS'promotion'
p1212
F7.233795936893534
sS'think'
p1213
F9.499339758207231
sS'first'
p1214
F7.7383519476459295
sS'exotic'
p1215
F9.700010453669382
sS'solicitors'
p1216
F9.258177701390343
sS'wlan'
p1217
F9.332285673544064
sS'redhat'
p1218
F8.286317118361376
sS'revenue'
p1219
F7.478394423209004
sS'studentship'
p1220
F7.945991312424174
sS'coming'
p1221
F9.499339758207231
sS'acca'
p1222
F8.159565412722234
sS'managernando'
p1223
F9.258177701390343
sS'borer'
p1224
F8.11304539708734
sS'fast'
p1225
F6.387846694377624
sS'spanish'
p1226
F7.01443310841923
sS'forwarding'
p1227
F8.806192577647286
sS'open'
p1228
F5.986438386965074
sS'tomorrow'
p1229
F9.189184829903391
sS'engineer'
p1230
F2.2365199221726457
sS'city'
p1231
F5.7791378329642535
sS'given'
p1232
F9.412328381217602
sS'sheet'
p1233
F7.7383519476459295
sS'district'
p1234
F8.40072746953912
sS'southend'
p1235
F8.529939201019127
sS'structured'
p1236
F9.006863273109436
sS'plastic'
p1237
F8.047087429295543
sS'tempperm'
p1238
F9.700010453669382
sS'wilts'
p1239
F6.934390400745694
sS'cirencester'
p1240
F8.601398165001273
sS'escort'
p1241
F9.499339758207231
sS'typing'
p1242
F9.700010453669382
sS'white'
p1243
F7.889901845773131
sS'circa'
p1244
F7.109743288223555
sS'structures'
p1245
F8.719181200657657
sS'national'
p1246
F5.141466109021346
sS'speaking'
p1247
F5.210126423139087
sS'nutrition'
p1248
F8.806192577647286
sS'mining'
p1249
F8.85271259328218
sS'courier'
p1250
F8.259648871279216
sS'documentation'
p1251
F8.286317118361376
sS'season'
p1252
F7.945991312424174
sS'continuous'
p1253
F7.854183763171052
sS'refuse'
p1254
F8.719181200657657
sS'cornwall'
p1255
F7.819697587099882
sS'broadcast'
p1256
F7.965409398281276
sS'qual'
p1257
F4.076394151098258
sS'andover'
p1258
F8.90150275745161
sS'fixedterm'
p1259
F9.189184829903391
sS'specialists'
p1260
F8.496037649343446
sS'thai'
p1261
F9.332285673544064
sS'copy'
p1262
F6.900022757241486
sS'milton'
p1263
F6.564516237740232
sS'wide'
p1264
F6.767336316082528
sS'wellingborough'
p1265
F9.594649938011555
sS'ucce'
p1266
F8.13603491531204
sS'require'
p1267
F4.784092922298513
sS'yeovil'
p1268
F8.40072746953912
sS'recruit'
p1269
F3.952742867073442
sS'midweight'
p1270
F8.463247826520455
sS'karate'
p1271
F9.258177701390343
sS'rehab'
p1272
F7.854183763171052
sS'future'
p1273
F8.565030520830398
sS'monfri'
p1274
F9.12464630876582
sS'venture'
p1275
F8.431499128205875
sS'aesthetic'
p1276
F7.233795936893534
sS'modeller'
p1277
F7.34335813940506
sS'stockport'
p1278
F7.502785876333163
sS'janitor'
p1279
F9.189184829903391
sS'russia'
p1280
F7.854183763171052
sS'proactive'
p1281
F9.594649938011555
sS'rgns'
p1282
F8.259648871279216
sS'physiotherapist'
p1283
F7.045204767085984
sS'portsmouth'
p1284
F7.262506042775966
sS'contentious'
p1285
F8.90150275745161
sS'geophysicist'
p1286
F8.529939201019127
sS'mvvm'
p1287
F9.064021686949385
sS'preston'
p1288
F7.663128526408342
sS'premier'
p1289
F9.006863273109436
sS'emea'
p1290
F6.906802444226865
sS'worcester'
p1291
F6.913628409297265
sS'warden'
p1292
F9.700010453669382
sS'prestigious'
p1293
F7.634555153964286
sS'rent'
p1294
F5.53248427415369
sS'elearning'
p1295
F8.208355576891664
sS'commissioning'
p1296
F6.866797109613166
sS'turner'
p1297
F6.3062480504947445
sS'borough'
p1298
F6.55490077904079
sS'windsor'
p1299
F8.13603491531204
sS'speakers'
p1300
F7.945991312424174
sS'form'
p1301
F5.18306450109613
sS'rnld'
p1302
F6.815830666021139
sS'equipment'
p1303
F6.579115037161385
sS'potential'
p1304
F8.565030520830398
sS'take'
p1305
F7.364635537852346
sS'online'
p1306
F5.680628929920736
sS'interior'
p1307
F7.692542411614635
sS'performance'
p1308
F6.927421731429601
sS'impairment'
p1309
F9.064021686949385
sS'channel'
p1310
F6.9627610978749095
sS'printer'
p1311
F8.068593634516507
sS'multiple'
p1312
F7.889901845773131
sS'theatre'
p1313
F6.186808013630732
sS'investigations'
p1314
F9.594649938011555
sS'track'
p1315
F7.692542411614635
sS'caseworker'
p1316
F9.189184829903391
sS'swyddog'
p1317
F9.700010453669382
sS'paid'
p1318
F7.29206484501751
sS'specialty'
p1319
F9.064021686949385
sS'leatherhead'
p1320
F9.189184829903391
sS'southwark'
p1321
F8.463247826520455
sS'pair'
p1322
F6.99939523105469
sS'librarian'
p1323
F9.189184829903391
sS'cleared'
p1324
F7.677727325829495
sS'authorised'
p1325
F9.258177701390343
sS'icon'
p1326
F8.341886969516187
sS'sutton'
p1327
F8.005414732894975
sS'annum'
p1328
F7.722847761109964
sS'neuro'
p1329
F7.802890468783501
sS'renal'
p1330
F8.259648871279216
sS'payable'
p1331
F6.709849225164847
sS'considered'
p1332
F8.85271259328218
sS'rmns'
p1333
F8.952796051839162
sS'sale'
p1334
F2.481507829304468
sS'hlta'
p1335
F9.189184829903391
sS'sittingbourne'
p1336
F9.12464630876582
sS'fillers'
p1337
F9.499339758207231
sS'pattern'
p1338
F9.006863273109436
sS'professional'
p1339
F5.826497303003111
sS'senior'
p1340
F2.670726077867835
sS'sigma'
p1341
F8.761740815076452
sS'review'
p1342
F8.11304539708734
sS'quantity'
p1343
F5.11504297499881
sS'shop'
p1344
F5.7703658468914165
sS'rating'
p1345
F7.663128526408342
sS'shot'
p1346
F8.806192577647286
sS'show'
p1347
F7.722847761109964
sS'german'
p1348
F5.412599795370349
sS'hartlepool'
p1349
F9.332285673544064
sS'contemporary'
p1350
F9.700010453669382
sS'sites'
p1351
F8.183662964301293
sS'administrators'
p1352
F8.286317118361376
sS'bright'
p1353
F6.913628409297265
sS'therapist'
p1354
F5.641484989252234
sS'arrears'
p1355
F9.499339758207231
sS'demonstrator'
p1356
F8.719181200657657
sS'fife'
p1357
F8.529939201019127
sS'forecast'
p1358
F8.233673384875955
sS'line'
p1359
F4.674669012183431
sS'geography'
p1360
F7.364635537852346
sS'fibre'
p1361
F8.761740815076452
sS'reservoir'
p1362
F8.6783592061374
sS'title'
p1363
F9.499339758207231
sS'committee'
p1364
F9.412328381217602
sS'togaf'
p1365
F9.499339758207231
sS'crime'
p1366
F8.529939201019127
sS'wood'
p1367
F7.109743288223555
sS'black'
p1368
F7.187704829693267
sS'treasury'
p1369
F7.01443310841923
sS'staines'
p1370
F9.12464630876582
sS'dispute'
p1371
F8.6783592061374
sS'bridge'
p1372
F5.278496047488382
sS'lifeguard'
p1373
F9.064021686949385
sS'welders'
p1374
F8.233673384875955
sS'contracts'
p1375
F6.036448807539736
sS'assistant'
p1376
F2.963307139222969
sS'xenserver'
p1377
F9.700010453669382
sS'anaesthetics'
p1378
F7.836792020459182
sS'boilers'
p1379
F9.700010453669382
sS'employers'
p1380
F9.258177701390343
sS'recruiters'
p1381
F9.006863273109436
sS'multiskilled'
p1382
F6.920501288585027
sS'tailor'
p1383
F7.945991312424174
sS'outlet'
p1384
F8.496037649343446
sS'hedge'
p1385
F7.553429609151918
sS'secondary'
p1386
F6.287763235820641
sS'village'
p1387
F8.952796051839162
sS'predictive'
p1388
F9.700010453669382
sS'resource'
p1389
F6.036448807539736
sS'reprographics'
p1390
F8.85271259328218
sS'artist'
p1391
F8.806192577647286
sS'leather'
p1392
F8.806192577647286
sS'havering'
p1393
F9.12464630876582
sS'thermal'
p1394
F8.6783592061374
sS'yield'
p1395
F9.594649938011555
sS'morning'
p1396
F8.565030520830398
sS'cheshire'
p1397
F6.6714883572924
sS'hungerford'
p1398
F9.412328381217602
sS'finishing'
p1399
F9.412328381217602
sS'hyperion'
p1400
F8.806192577647286
sS'middleware'
p1401
F8.37087450638944
sS'vision'
p1402
F6.809638695773217
sS'kernel'
p1403
F9.006863273109436
sS'coldfield'
p1404
F9.12464630876582
sS'milling'
p1405
F8.37087450638944
sS'seat'
p1406
F8.85271259328218
sS'responsive'
p1407
F9.412328381217602
sS'datacentre'
p1408
F8.719181200657657
sS'college'
p1409
F8.806192577647286
sS'parking'
p1410
F8.90150275745161
sS'optometrist'
p1411
F5.781342905522568
sS'surgery'
p1412
F7.889901845773131
sS'sport'
p1413
F5.838111835423804
sS'exam'
p1414
F8.286317118361376
sS'gillingham'
p1415
F9.189184829903391
sS'homecare'
p1416
F8.068593634516507
sS'vertical'
p1417
F8.6783592061374
sS'mortgage'
p1418
F6.317505205019379
sS'labview'
p1419
F8.40072746953912
sS'managing'
p1420
F7.353940248735597
sS'cleaning'
p1421
F6.17692325439819
sS'morpeth'
p1422
F9.594649938011555
sS'representatives'
p1423
F7.593169937801432
sS'sponsorship'
p1424
F7.4905157837413485
sS'pump'
p1425
F7.836792020459182
sS'eastleigh'
p1426
F9.412328381217602
sS'dartford'
p1427
F8.286317118361376
sS'import'
p1428
F7.7863611668322905
sS'reading'
p1429
F6.022304300153571
sS'across'
p1430
F8.952796051839162
sS'therapies'
p1431
F8.761740815076452
sS'conferencing'
p1432
F9.258177701390343
sS'infrastructure'
p1433
F5.369277113383051
sS'jobs'
p1434
F4.825661666794069
sS'parent'
p1435
F8.529939201019127
sS'websphere'
p1436
F8.90150275745161
sS'comp'
p1437
F4.5840146439153004
sS'screen'
p1438
F8.159565412722234
sS'supermarket'
p1439
F8.529939201019127
sS'comm'
p1440
F3.549644623975544
sS'tooling'
p1441
F7.965409398281276
sS'pharmacists'
p1442
F9.499339758207231
sS'come'
p1443
F6.873354510159325
sS'firewalls'
p1444
F9.594649938011555
sS'installation'
p1445
F6.574225051867193
sS'talented'
p1446
F8.719181200657657
sS'tutors'
p1447
F8.90150275745161
sS'region'
p1448
F5.334790937311881
sS'solidworks'
p1449
F7.945991312424174
sS'staffordshire'
p1450
F7.593169937801432
sS'contract'
p1451
F4.370517469652896
sS'fico'
p1452
F8.806192577647286
sS'kbens'
p1453
F9.332285673544064
sS'tour'
p1454
F7.802890468783501
sS'tewkesbury'
p1455
F9.594649938011555
sS'workplace'
p1456
F9.594649938011555
sS'horsham'
p1457
F7.965409398281276
sS'spare'
p1458
F8.6783592061374
sS'grooming'
p1459
F8.85271259328218
sS'allowance'
p1460
F8.259648871279216
sS'duty'
p1461
F7.093213986272345
sS'forecasting'
p1462
F8.463247826520455
sS'ilex'
p1463
F9.258177701390343
sS'cancer'
p1464
F9.594649938011555
sS'passenger'
p1465
F9.258177701390343
sS'cognos'
p1466
F7.9852120255774555
sS'robotics'
p1467
F9.499339758207231
sS'venues'
p1468
F7.478394423209004
sS'dispatch'
p1469
F8.431499128205875
sS'grants'
p1470
F9.189184829903391
sS'anti'
p1471
F5.040773046411015
sS'learning'
p1472
F5.510355711642957
sS'crew'
p1473
F7.965409398281276
sS'custody'
p1474
F9.499339758207231
sS'qlikview'
p1475
F8.341886969516187
sS'save'
p1476
F9.12464630876582
sS'arts'
p1477
F6.644961602958972
sS'carer'
p1478
F6.375774113143355
sS'resort'
p1479
F8.952796051839162
sS'west'
p1480
F4.623448713160707
sS'classic'
p1481
F8.719181200657657
sS'consultancy'
p1482
F6.559696951304283
sS'mark'
p1483
F3.6529009831495065
sS'sessional'
p1484
F9.258177701390343
sS'workshop'
p1485
F6.815830666021139
sS'combined'
p1486
F9.700010453669382
sS'mechancial'
p1487
F9.499339758207231
sS'hseq'
p1488
F9.594649938011555
sS'borders'
p1489
F9.064021686949385
sS'worcestershire'
p1490
F7.945991312424174
sS'renewables'
p1491
F9.12464630876582
sS'mary'
p1492
F5.076127558749136
sS'engine'
p1493
F2.2336557761164135
sS'shopping'
p1494
F9.499339758207231
sS'substations'
p1495
F9.700010453669382
sS'aero'
p1496
F6.755571474502942
sS'andrew'
p1497
F8.90150275745161
sS'zend'
p1498
F8.233673384875955
sS'external'
p1499
F7.579746917469291
sS'tibco'
p1500
F9.700010453669382
sS'ophthalmic'
p1501
F8.952796051839162
sS'fmcg'
p1502
F6.359900763987064
sS'ebusiness'
p1503
F8.6783592061374
sS'ruby'
p1504
F6.906802444226865
sS'case'
p1505
F6.9627610978749095
sS'consultant'
p1506
F3.1816829050977855
sS'mount'
p1507
F9.258177701390343
sS'scaffolder'
p1508
F9.594649938011555
sS'cash'
p1509
F6.328890527244504
sS'admin'
p1510
F3.455843553005646
sS'ongoing'
p1511
F8.159565412722234
sS'editorial'
p1512
F8.63913849298412
sS'bicester'
p1513
F8.952796051839162
sS'trader'
p1514
F7.9269431174534795
sS'jointer'
p1515
F9.258177701390343
sS'polymer'
p1516
F9.499339758207231
sS'aluminium'
p1517
F9.006863273109436
sS'trades'
p1518
F8.286317118361376
sS'conferences'
p1519
F9.006863273109436
sS'telephone'
p1520
F7.029700580550019
sS'lowestoft'
p1521
F9.006863273109436
sS'interviewers'
p1522
F9.499339758207231
sS'middle'
p1523
F6.459155722082406
sS'bias'
p1524
F7.178736159710507
sS'ambient'
p1525
F9.700010453669382
sS'technology'
p1526
F6.025117241530186
sS'floating'
p1527
F8.496037649343446
sS'grimsby'
p1528
F9.12464630876582
sS'develop'
p1529
F2.4634311589042888
sS'midday'
p1530
F9.332285673544064
sS'doctor'
p1531
F6.822061215771774
sS'media'
p1532
F4.440780475829392
sS'senco'
p1533
F9.064021686949385
sS'check'
p1534
F8.090572541235282
sS'shifts'
p1535
F7.05304794454701
sS'verifier'
p1536
F8.719181200657657
sS'html'
p1537
F5.613100869934799
sS'speech'
p1538
F7.34335813940506
sS'document'
p1539
F6.809638695773217
sS'isle'
p1540
F7.478394423209004
sS'wimbledon'
p1541
F8.496037649343446
sS'week'
p1542
F6.077152100653239
sS'wirer'
p1543
F8.286317118361376
sS'finish'
p1544
F8.341886969516187
sS'singapore'
p1545
F8.806192577647286
sS'assist'
p1546
F2.9579162905880922
sS'driver'
p1547
F4.762344179439717
sS'drives'
p1548
F9.332285673544064
sS'director'
p1549
F4.428721759509265
sS'persons'
p1550
F8.719181200657657
sS'statutory'
p1551
F8.496037649343446
sS'fruit'
p1552
F9.700010453669382
sS'barber'
p1553
F9.499339758207231
sS'railway'
p1554
F9.064021686949385
sS'renewable'
p1555
F7.707580288979176
sS'middleweight'
p1556
F8.85271259328218
sS'costa'
p1557
F8.90150275745161
sS'handson'
p1558
F9.700010453669382
sS'drain'
p1559
F8.286317118361376
sS'peterborough'
p1560
F7.397425360675337
sS'iseb'
p1561
F8.496037649343446
sS'page'
p1562
F8.6783592061374
sS'bailiff'
p1563
F9.499339758207231
sS'mortgages'
p1564
F9.332285673544064
sS'costs'
p1565
F8.159565412722234
sS'relief'
p1566
F6.481134628801182
sS'components'
p1567
F8.341886969516187
sS'republic'
p1568
F9.594649938011555
sS'penetration'
p1569
F9.189184829903391
sS'model'
p1570
F6.313738722223902
sS'reward'
p1571
F7.579746917469291
sS'lewes'
p1572
F9.332285673544064
sS'researchers'
p1573
F9.12464630876582
sS'cheltenham'
p1574
F7.593169937801432
sS'outdoor'
p1575
F8.6783592061374
sS'nosql'
p1576
F8.761740815076452
sS'money'
p1577
F8.026034020097711
sS'resolution'
p1578
F9.412328381217602
sS'rest'
p1579
F4.570111738746308
sS'oxford'
p1580
F5.766008541522461
sS'avionic'
p1581
F9.006863273109436
sS'maternity'
p1582
F6.200141544500197
sS'sprayer'
p1583
F8.286317118361376
sS'sitecore'
p1584
F9.064021686949385
sS'polish'
p1585
F8.11304539708734
sS'melton'
p1586
F9.594649938011555
sS'speed'
p1587
F9.332285673544064
sS'weekly'
p1588
F8.719181200657657
sS'blow'
p1589
F9.594649938011555
sS'doctoral'
p1590
F7.871883340270452
sS'telecare'
p1591
F9.700010453669382
sS'autocad'
p1592
F8.090572541235282
sS'generator'
p1593
F7.243274680848078
sS'flood'
p1594
F8.952796051839162
sS'rental'
p1595
F8.431499128205875
sS'skipton'
p1596
F9.064021686949385
sS'desktop'
p1597
F6.715451480713517
sS'pallet'
p1598
F9.700010453669382
sS'instrument'
p1599
F7.01443310841923
sS'perth'
p1600
F8.761740815076452
sS'treatment'
p1601
F6.99939523105469
sS'coded'
p1602
F8.952796051839162
sS'netapp'
p1603
F8.431499128205875
sS'careers'
p1604
F9.12464630876582
sS'ross'
p1605
F7.262506042775966
sS'real'
p1606
F6.822061215771774
sS'hammersmith'
p1607
F8.761740815076452
sS'around'
p1608
F9.332285673544064
sS'optometrists'
p1609
F7.118111537894072
sS'injection'
p1610
F8.259648871279216
sS'photocopier'
p1611
F7.677727325829495
sS'regis'
p1612
F4.752827850684462
sS'early'
p1613
F6.63973965897782
sS'test'
p1614
F4.67248162523763
sS'traffic'
p1615
F7.722847761109964
sS'sccm'
p1616
F8.208355576891664
sS'scheduler'
p1617
F7.478394423209004
sS'world'
p1618
F7.302115180871011
sS'underwriting'
p1619
F7.854183763171052
sS'pharmacovigilance'
p1620
F9.700010453669382
sS'furniture'
p1621
F8.463247826520455
sS'acute'
p1622
F7.692542411614635
sS'silverlight'
p1623
F9.258177701390343
sS'depot'
p1624
F8.85271259328218
sS'vending'
p1625
F9.064021686949385
sS'intel'
p1626
F6.135183648225425
sS'server'
p1627
F5.30008932911895
sS'facing'
p1628
F8.6783592061374
sS'benefit'
p1629
F5.601969029565955
sS'maximo'
p1630
F9.006863273109436
sS'blackberry'
p1631
F8.529939201019127
sS'webmaster'
p1632
F9.332285673544064
sS'drainage'
p1633
F8.496037649343446
sS'conveyancing'
p1634
F7.553429609151918
sS'served'
p1635
F9.412328381217602
sS'tower'
p1636
F8.496037649343446
sS'passionate'
p1637
F9.412328381217602
sS'clas'
p1638
F5.598285784149659
sS'sandwell'
p1639
F9.006863273109436
sS'classified'
p1640
F9.412328381217602
sS'cisco'
p1641
F6.248260792844396
sS'jewellery'
p1642
F9.006863273109436
sS'apartments'
p1643
F9.700010453669382
sS'assurer'
p1644
F9.700010453669382
sS'competition'
p1645
F9.412328381217602
sS'japanese'
p1646
F8.259648871279216
sS'telesales'
p1647
F5.243082510822383
sS'wigan'
p1648
F8.11304539708734
sS'table'
p1649
F7.965409398281276
sS'scrub'
p1650
F6.715451480713517
sS'ladieswear'
p1651
F7.9269431174534795
sS'provided'
p1652
F8.286317118361376
sS'islington'
p1653
F8.63913849298412
sS'renewals'
p1654
F9.258177701390343
sS'substance'
p1655
F8.313716092549491
sS'operators'
p1656
F8.463247826520455
sS'dudley'
p1657
F8.463247826520455
sS'legal'
p1658
F5.174605236150153
sS'vale'
p1659
F8.431499128205875
sS'models'
p1660
F9.700010453669382
sS'dealership'
p1661
F7.302115180871011
sS'provider'
p1662
F7.7383519476459295
sS'newport'
p1663
F8.183662964301293
sS'porter'
p1664
F7.215103803881382
sS'headhunter'
p1665
F8.068593634516507
sS'welcome'
p1666
F9.189184829903391
sS'assembly'
p1667
F6.934390400745694
sS'scientific'
p1668
F6.879955194190677
sS'power'
p1669
F6.454817320483808
sS'asap'
p1670
F6.574225051867193
sS'internship'
p1671
F8.341886969516187
sS'chefs'
p1672
F7.965409398281276
sS'inspect'
p1673
F6.227354108025081
sS'broker'
p1674
F6.454817320483808
sS'outreach'
p1675
F8.496037649343446
sS'leadership'
p1676
F8.601398165001273
sS'physiotherapy'
p1677
F9.700010453669382
sS'diagnostics'
p1678
F8.761740815076452
sS'exciting'
p1679
F7.224406196543695
sS'northwest'
p1680
F9.332285673544064
sS'brighton'
p1681
F6.9627610978749095
sS'stone'
p1682
F6.991960252567172
sS'central'
p1683
F5.517112494105836
sS'package'
p1684
F6.512739968216512
sS'biopharma'
p1685
F9.594649938011555
sS'island'
p1686
F9.064021686949385
sS'disabilities'
p1687
F7.085050675633184
sS'kirkcaldy'
p1688
F9.700010453669382
sS'copywriter'
p1689
F8.026034020097711
sS'spss'
p1690
F8.90150275745161
sS'integrator'
p1691
F9.499339758207231
sS'estimator'
p1692
F5.643406219430128
sS'stand'
p1693
F6.934390400745694
sS'barry'
p1694
F9.499339758207231
sS'mixed'
p1695
F8.313716092549491
sS'backup'
p1696
F8.601398165001273
sS'processor'
p1697
F7.819697587099882
sS'road'
p1698
F6.893288725060143
sS'barnsley'
p1699
F8.341886969516187
sS'ladies'
p1700
F7.215103803881382
sS'cambridge'
p1701
F5.748766735087955
sS'fundraising'
p1702
F6.5501275002881325
sS'bricklayers'
p1703
F9.700010453669382
sS'inclusion'
p1704
F8.529939201019127
sS'communication'
p1705
F5.558640952802419
sS'weybridge'
p1706
F9.189184829903391
sS'skilled'
p1707
F5.905770483897619
sS'essex'
p1708
F5.946592478417875
sS'spinal'
p1709
F9.332285673544064
sS'accounts'
p1710
F4.793912968479489
sS'lively'
p1711
F9.189184829903391
sS'homeless'
p1712
F9.258177701390343
sS'strip'
p1713
F9.412328381217602
sS'operator'
p1714
F5.354763070498797
sS'adobe'
p1715
F9.258177701390343
sS'intervention'
p1716
F7.9269431174534795
sS'pharmaceutical'
p1717
F7.02203770780445
sS'radiology'
p1718
F9.700010453669382
sS'supervising'
p1719
F7.945991312424174
sS'herts'
p1720
F7.51520839633172
sS'relocation'
p1721
F7.854183763171052
sS'start'
p1722
F5.076127558749136
sS'cats'
p1723
F9.189184829903391
sS'italia'
p1724
F7.045204767085984
sS'insurance'
p1725
F5.5891365894960705
sS'stars'
p1726
F9.594649938011555
sS'expatriate'
p1727
F8.6783592061374
sS'somerset'
p1728
F7.135061096207846
sS'valley'
p1729
F8.431499128205875
sS'materials'
p1730
F6.822061215771774
sS'dagenham'
p1731
F9.594649938011555
sS'apis'
p1732
F5.62813874729934
sS'nightshift'
p1733
F8.601398165001273
sS'farnborough'
p1734
F8.496037649343446
sS'warrington'
p1735
F7.060953124054124
sS'brain'
p1736
F8.90150275745161
sS'ayrshire'
p1737
F9.258177701390343
sS'lewisham'
p1738
F8.40072746953912
sS'refurb'
p1739
F8.286317118361376
sS'buying'
p1740
F7.965409398281276
sS'football'
p1741
F9.412328381217602
sS'hire'
p1742
F3.910050282772129
sS'fraud'
p1743
F7.77010064596051
sS'illustrator'
p1744
F9.258177701390343
sS'embedded'
p1745
F5.868956510774903
sS'wholesale'
p1746
F7.353940248735597
sS'interiors'
p1747
F9.189184829903391
sS'appliance'
p1748
F8.761740815076452
sS'turbines'
p1749
F9.594649938011555
sS'draftsman'
p1750
F8.37087450638944
sS'dispensing'
p1751
F7.375446453956561
sS'rehabilitation'
p1752
F9.064021686949385
sS'asst'
p1753
F8.719181200657657
sS'builders'
p1754
F9.594649938011555
sS'abingdon'
p1755
F9.12464630876582
sS'vehicles'
p1756
F9.258177701390343
sS'wellbeing'
p1757
F8.601398165001273
sS'sales'
p1758
F2.489438214651194
sS'fellow'
p1759
F7.215103803881382
sS'onboarding'
p1760
F9.499339758207231
sS'landscape'
p1761
F8.806192577647286
sS'ssrs'
p1762
F7.169847212293261
sS'file'
p1763
F7.754100304614069
sS'formulation'
p1764
F8.761740815076452
sS'grantham'
p1765
F9.332285673544064
sS'hospitals'
p1766
F8.806192577647286
sS'bishop'
p1767
F9.064021686949385
sS'film'
p1768
F7.579746917469291
sS'lambeth'
p1769
F8.11304539708734
sS'middlesex'
p1770
F7.408598661273461
sS'ideally'
p1771
F9.499339758207231
sS'murex'
p1772
F9.700010453669382
sS'biochemistry'
p1773
F9.412328381217602
sS'personnel'
p1774
F8.719181200657657
sS'drivers'
p1775
F6.2308083428931695
sS'storage'
p1776
F7.161036582611106
sS'chiller'
p1777
F9.412328381217602
sS'vocational'
p1778
F8.233673384875955
sS'graduate'
p1779
F4.163989384475806
sS'field'
p1780
F4.264349525610468
sS'evenings'
p1781
F8.6783592061374
sS'mathematics'
p1782
F7.322524052502219
sS'chichester'
p1783
F7.677727325829495
sS'students'
p1784
F7.7383519476459295
sS'topshop'
p1785
F9.594649938011555
sS'hydraulics'
p1786
F8.40072746953912
sS'carpenter'
p1787
F7.802890468783501
sS'gifts'
p1788
F9.12464630876582
sS'daventry'
p1789
F9.189184829903391
sS'brands'
p1790
F8.496037649343446
sS'guildford'
p1791
F6.564516237740232
sS'pool'
p1792
F6.033603855407504
sS'alcohol'
p1793
F9.499339758207231
sS'building'
p1794
F5.700790903211081
sS'remote'
p1795
F8.85271259328218
sS'assets'
p1796
F9.499339758207231
sS'preconstruction'
p1797
F9.412328381217602
sS'tronc'
p1798
F9.700010453669382
sS'12month'
p1799
F9.332285673544064
sS'wifi'
p1800
F9.412328381217602
sS'directors'
p1801
F8.313716092549491
sS'sewer'
p1802
F9.258177701390343
sS'mass'
p1803
F8.208355576891664
sS'nando'
p1804
F9.006863273109436
sS'directory'
p1805
F8.259648871279216
sS'signalling'
p1806
F8.259648871279216
sS'deluxe'
p1807
F8.806192577647286
sS'bolton'
p1808
F7.7863611668322905
sS'wastewater'
p1809
F8.761740815076452
sS'bridgend'
p1810
F9.412328381217602
sS'exhibitions'
p1811
F8.529939201019127
sS'chinese'
p1812
F9.499339758207231
sS'groundwork'
p1813
F7.152302902642352
sS'rickmansworth'
p1814
F8.90150275745161
sS'month'
p1815
F5.147303837217032
sS'surgical'
p1816
F7.454583774515285
sS'concept'
p1817
F7.593169937801432
sS'welfare'
p1818
F7.965409398281276
sS'trusts'
p1819
F8.719181200657657
sS'religious'
p1820
F9.189184829903391
sS'children'
p1821
F5.8104603040932945
sS'semiconductor'
p1822
F9.258177701390343
sS'numeracy'
p1823
F9.189184829903391
sS'catastrophe'
p1824
F9.332285673544064
sS'fellowship'
p1825
F9.594649938011555
sS'mayfair'
p1826
F8.63913849298412
sS'rtos'
p1827
F8.719181200657657
sS'microwave'
p1828
F9.700010453669382
sS'opportunities'
p1829
F6.408297304848915
sS'removal'
p1830
F9.412328381217602
sS'broadcasting'
p1831
F9.332285673544064
sS'program'
p1832
F4.846245583937557
sS'dairy'
p1833
F9.12464630876582
sS'safety'
p1834
F5.849862851959323
sS'vbnet'
p1835
F6.284106924617531
sS'activities'
p1836
F8.463247826520455
sS'minder'
p1837
F9.412328381217602
sS'premium'
p1838
F7.045204767085984
sS'bracknell'
p1839
F7.4905157837413485
sS'lincolnshire'
p1840
F7.836792020459182
sS'presales'
p1841
F6.822061215771774
sS'pcidss'
p1842
F9.700010453669382
sS'psychologist'
p1843
F8.40072746953912
sS'novel'
p1844
F9.499339758207231
sS'vere'
p1845
F7.663128526408342
sS'minded'
p1846
F9.594649938011555
sS'ticket'
p1847
F8.529939201019127
sS'existing'
p1848
F8.952796051839162
sS'condition'
p1849
F7.4905157837413485
sS'norfolk'
p1850
F7.397425360675337
sS'cable'
p1851
F8.463247826520455
sS'impact'
p1852
F9.499339758207231
sS'hris'
p1853
F8.208355576891664
sS'large'
p1854
F7.332886839537765
sS'sand'
p1855
F8.208355576891664
sS'bangor'
p1856
F8.63913849298412
sS'gardener'
p1857
F8.13603491531204
sS'small'
p1858
F7.593169937801432
sS'indemnity'
p1859
F9.258177701390343
sS'joiner'
p1860
F7.408598661273461
sS'programme'
p1861
F4.895989408936125
sS'opengl'
p1862
F9.499339758207231
sS'lucrative'
p1863
F9.700010453669382
sS'onshore'
p1864
F8.952796051839162
sS'rate'
p1865
F4.772756768512178
sS'haematology'
p1866
F9.332285673544064
sS'design'
p1867
F3.5770304334267227
sS'promoter'
p1868
F9.594649938011555
sS'lawyer'
p1869
F6.183502225496232
sS'investment'
p1870
F5.983732025367331
sS'metallurgist'
p1871
F9.332285673544064
sS'defence'
p1872
F7.31226755233503
sS'menswear'
p1873
F7.29206484501751
sS'ives'
p1874
F5.733920226970961
sS'sevenoaks'
p1875
F8.601398165001273
sS'section'
p1876
F7.593169937801432
sS'paralegal'
p1877
F6.608968000311066
sS'microbiology'
p1878
F8.286317118361376
sS'milk'
p1879
F9.064021686949385
sS'superstar'
p1880
F9.258177701390343
sS'rochester'
p1881
F9.594649938011555
sS'nurse'
p1882
F3.405769988162095
sS'public'
p1883
F6.619120371775084
sS'multinational'
p1884
F8.952796051839162
sS'full'
p1885
F5.967645887615707
sS'installations'
p1886
F8.313716092549491
sS'hackney'
p1887
F8.85271259328218
sS'component'
p1888
F7.889901845773131
sS'actuary'
p1889
F8.341886969516187
sS'hours'
p1890
F6.634544842100716
sS'ranger'
p1891
F9.258177701390343
sS'motherwell'
p1892
F9.700010453669382
sS'leeds'
p1893
F5.774742221491215
sS'andrews'
p1894
F9.412328381217602
sS'trunk'
p1895
F9.499339758207231
sS'strong'
p1896
F8.208355576891664
sS'partqualified'
p1897
F9.12464630876582
sS'publisher'
p1898
F8.090572541235282
sS'search'
p1899
F4.901468874700751
sS'naval'
p1900
F7.908250984441327
sS'handlers'
p1901
F9.189184829903391
sS'picu'
p1902
F8.496037649343446
sS'compliance'
p1903
F5.772551640111397
sS'ftse100'
p1904
F9.499339758207231
sS'experience'
p1905
F4.968697212840936
sS'airport'
p1906
F8.047087429295543
sS'antrim'
p1907
F8.761740815076452
sS'advertising'
p1908
F6.574225051867193
sS'social'
p1909
F4.740278666389965
sS'action'
p1910
F7.262506042775966
sS'welder'
p1911
F6.42917488987047
sS'options'
p1912
F8.952796051839162
sS'thurrock'
p1913
F9.700010453669382
sS'imaging'
p1914
F8.40072746953912
sS'trainer'
p1915
F5.85460219732322
sS'family'
p1916
F6.50360748465324
sS'caravan'
p1917
F9.412328381217602
sS'transit'
p1918
F7.7863611668322905
sS'africa'
p1919
F7.945991312424174
sS'cosmetic'
p1920
F7.754100304614069
sS'backed'
p1921
F9.700010453669382
sS'trained'
p1922
F8.6783592061374
sS'trainee'
p1923
F4.663779612384163
sS'coatings'
p1924
F9.594649938011555
sS'attendant'
p1925
F7.9269431174534795
sS'select'
p1926
F8.6783592061374
sS'mazak'
p1927
F9.258177701390343
sS'intensive'
p1928
F7.9852120255774555
sS'conventional'
p1929
F9.189184829903391
sS'taker'
p1930
F7.819697587099882
sS'moffett'
p1931
F9.258177701390343
sS'oxfordshire'
p1932
F6.8034848301988395
sS'destination'
p1933
F9.189184829903391
sS'governance'
p1934
F7.677727325829495
sS'fortune'
p1935
F9.594649938011555
sS'assistance'
p1936
F9.412328381217602
sS'objectivec'
p1937
F9.258177701390343
sS'branded'
p1938
F6.5219566233214366
sS'markets'
p1939
F7.262506042775966
sS'assessor'
p1940
F5.62813874729934
sS'itsm'
p1941
F9.700010453669382
sS'door'
p1942
F6.9845801452695495
sS'tester'
p1943
F5.946592478417875
sS'inverness'
p1944
F8.496037649343446
sS'company'
p1945
F5.535932553432606
sS'hedgefund'
p1946
F9.594649938011555
sS'outpatient'
p1947
F8.047087429295543
sS'admissions'
p1948
F9.064021686949385
sS'underwriter'
p1949
F6.815830666021139
sS'tees'
p1950
F8.286317118361376
sS'town'
p1951
F7.77010064596051
sS'bedford'
p1952
F6.755571474502942
sS'keeping'
p1953
F8.183662964301293
sS'salesforce'
p1954
F7.593169937801432
sS'hour'
p1955
F5.991873182951031
sS'telephony'
p1956
F8.090572541235282
sS'science'
p1957
F5.849862851959323
sS'learn'
p1958
F5.392946857468956
sS'male'
p1959
F6.99939523105469
sS'history'
p1960
F7.442887734752094
sS'purchaser'
p1961
F8.463247826520455
sS'barchester'
p1962
F7.353940248735597
sS'division'
p1963
F7.262506042775966
sS'tonbridge'
p1964
F9.189184829903391
sS'redbridge'
p1965
F9.258177701390343
sS'share'
p1966
F5.915820819751121
sS'baldock'
p1967
F9.499339758207231
sS'sainsbury'
p1968
F9.700010453669382
sS'wycombe'
p1969
F7.945991312424174
sS'magento'
p1970
F7.871883340270452
sS'bucks'
p1971
F8.13603491531204
sS'calderdale'
p1972
F9.258177701390343
sS'dress'
p1973
F8.496037649343446
sS'arabic'
p1974
F9.006863273109436
sS'axis'
p1975
F9.006863273109436
sS'information'
p1976
F6.128914035211829
sS'radiographer'
p1977
F7.51520839633172
sS'court'
p1978
F8.11304539708734
sS'equities'
p1979
F8.233673384875955
sS'breast'
p1980
F9.700010453669382
sS'ledger'
p1981
F5.826497303003111
sS'earnings'
p1982
F8.431499128205875
sS'upto'
p1983
F7.060953124054124
sS'plant'
p1984
F6.644961602958972
sS'purley'
p1985
F9.700010453669382
sS'countryside'
p1986
F9.594649938011555
sS'advice'
p1987
F8.761740815076452
sS'france'
p1988
F8.565030520830398
sS'lighting'
p1989
F8.026034020097711
sS'adventure'
p1990
F9.412328381217602
sS'faculty'
p1991
F8.806192577647286
sS'remediation'
p1992
F9.258177701390343
sS'basildon'
p1993
F8.529939201019127
sS'horizontal'
p1994
F8.90150275745161
sS'response'
p1995
F8.286317118361376
sS'acquisitions'
p1996
F8.40072746953912
sS'portuguese'
p1997
F8.529939201019127
sS'short'
p1998
F8.13603491531204
sS'upholsterer'
p1999
F9.064021686949385
sS'author'
p2000
F6.873354510159325
sS'django'
p2001
F8.601398165001273
sS'marlow'
p2002
F8.90150275745161
sS'shore'
p2003
F7.262506042775966
sS'ortho'
p2004
F7.302115180871011
sS'responsibility'
p2005
F9.258177701390343
sS'approvals'
p2006
F9.594649938011555
sS'dumfries'
p2007
F9.006863273109436
sS'photoshop'
p2008
F8.259648871279216
sS'help'
p2009
F6.227354108025081
sS'leigh'
p2010
F8.341886969516187
sS'september'
p2011
F8.431499128205875
sS'john'
p2012
F9.594649938011555
sS'maidenhead'
p2013
F7.9269431174534795
sS'mission'
p2014
F6.2308083428931695
sS'trade'
p2015
F4.972622634957042
sS'disabled'
p2016
F9.412328381217602
sS'civils'
p2017
F6.991960252567172
sS'scientist'
p2018
F6.6714883572924
sS'darlington'
p2019
F8.63913849298412
sS'installer'
p2020
F8.208355576891664
sS'turbine'
p2021
F8.313716092549491
sS'nottinghamshire'
p2022
F8.005414732894975
sS'developer'
p2023
F2.8601771911727036
sS'epos'
p2024
F8.565030520830398
sS'style'
p2025
F7.634555153964286
sS'billings'
p2026
F8.90150275745161
sS'call'
p2027
F5.893347963899062
sS'scom'
p2028
F8.761740815076452
sS'selenium'
p2029
F8.13603491531204
sS'abbey'
p2030
F9.499339758207231
sS'late'
p2031
F7.02203770780445
sS'grade'
p2032
F8.090572541235282
sS'mitel'
p2033
F8.85271259328218
sS'systems'
p2034
F4.382980378189191
sS'leicester'
p2035
F6.424964357334127
sS'carpentry'
p2036
F8.85271259328218
sS'good'
p2037
F7.135061096207846
sS'motivated'
p2038
F9.332285673544064
sS'seeking'
p2039
F8.719181200657657
sS'food'
p2040
F5.378087743065206
sS'locums'
p2041
F9.700010453669382
sS'hunter'
p2042
F7.802890468783501
sS'framework'
p2043
F8.40072746953912
sS'party'
p2044
F9.700010453669382
sS'foot'
p2045
F7.7383519476459295
sS'harrow'
p2046
F7.9269431174534795
sS'association'
p2047
F9.12464630876582
sS'telco'
p2048
F8.11304539708734
sS'lettuce'
p2049
F9.499339758207231
sS'sundays'
p2050
F9.700010453669382
sS'fully'
p2051
F9.412328381217602
sS'ecrm'
p2052
F9.499339758207231
sS'events'
p2053
F5.8593641110834636
sS'micro'
p2054
F6.167135248032027
sS'piping'
p2055
F8.259648871279216
sS'multidrop'
p2056
F8.37087450638944
sS'chipping'
p2057
F9.189184829903391
sS'execs'
p2058
F9.412328381217602
sS'heavy'
p2059
F7.478394423209004
sS'breakdown'
p2060
F8.496037649343446
sS'england'
p2061
F6.906802444226865
sS'mental'
p2062
F5.630034482464239
sS'weight'
p2063
F7.754100304614069
sS'museum'
p2064
F9.189184829903391
sS'generation'
p2065
F7.233795936893534
sS'house'
p2066
F4.9397376601286505
sS'energy'
p2067
F6.089092541025158
sS'hard'
p2068
F6.3638455422780815
sS'organiser'
p2069
F9.064021686949385
sS'neurology'
p2070
F9.594649938011555
sS'operation'
p2071
F4.737165823409475
sS'balance'
p2072
F8.090572541235282
sS'event'
p2073
F5.4887062399461035
sS'catia'
p2074
F9.12464630876582
sS'funding'
p2075
F8.601398165001273
sS'psychology'
p2076
F8.37087450638944
sS'hourly'
p2077
F9.412328381217602
sS'kensington'
p2078
F8.40072746953912
sS'hydraulic'
p2079
F7.836792020459182
sS'research'
p2080
F5.12989190574021
sS'reablement'
p2081
F9.700010453669382
sS'acting'
p2082
F8.601398165001273
sS'health'
p2083
F4.384071485771526
sS'hill'
p2084
F6.941407973404341
sS'sdlc'
p2085
F9.499339758207231
sS'print'
p2086
F6.629376871942274
sS'offline'
p2087
F9.064021686949385
sS'evaluation'
p2088
F8.63913849298412
sS'highway'
p2089
F7.076953465400565
sS'bistro'
p2090
F8.806192577647286
sS'drink'
p2091
F8.005414732894975
sS'norwich'
p2092
F7.332886839537765
sS'friday'
p2093
F8.208355576891664
sS'recoveries'
p2094
F8.529939201019127
sS'qualify'
p2095
F9.499339758207231
sS'base'
p2096
F4.974591139529713
sS'conditioning'
p2097
F7.579746917469291
sS'members'
p2098
F6.879955194190677
sS'maths'
p2099
F6.071234923625151
sS'teach'
p2100
F3.4816316953509974
sS'dorset'
p2101
F7.262506042775966
sS'onsite'
p2102
F8.313716092549491
sS'driven'
p2103
F8.85271259328218
sS'unique'
p2104
F8.952796051839162
sS'benefits'
p2105
F5.633836768413977
sS'launch'
p2106
F9.332285673544064
sS'drupal'
p2107
F7.466418232162288
sS'woven'
p2108
F8.952796051839162
sS'qhse'
p2109
F9.594649938011555
sS'lingual'
p2110
F7.243274680848078
sS'braintree'
p2111
F9.594649938011555
sS'liaison'
p2112
F7.51520839633172
sS'castle'
p2113
F6.682299273396616
sS'partnerships'
p2114
F8.259648871279216
sS'aftersales'
p2115
F8.183662964301293
sS'picker'
p2116
F7.854183763171052
sS'major'
p2117
F6.873354510159325
sS'nutsford'
p2118
F9.12464630876582
sS'stanmore'
p2119
F9.700010453669382
sS'number'
p2120
F9.700010453669382
sS'thetford'
p2121
F9.258177701390343
sS'ecommerce'
p2122
F5.740256045420046
sS'arbitration'
p2123
F9.499339758207231
sS'story'
p2124
F7.397425360675337
sS'semisenior'
p2125
F8.496037649343446
sS'guest'
p2126
F8.952796051839162
sS'script'
p2127
F5.684628935254083
sS'leading'
p2128
F5.461084662636174
sS'interviews'
p2129
F8.6783592061374
sS'rooms'
p2130
F8.85271259328218
sS'rails'
p2131
F7.454583774515285
sS'checkpoint'
p2132
F8.806192577647286
sS'paint'
p2133
F7.224406196543695
sS'regulation'
p2134
F9.258177701390343
sS'station'
p2135
F7.707580288979176
sS'weblogic'
p2136
F9.700010453669382
sS'protocol'
p2137
F9.258177701390343
sS'rates'
p2138
F8.090572541235282
sS'scheme'
p2139
F6.969981345848397
sS'scra'
p2140
F9.189184829903391
sS'store'
p2141
F4.970657997782877
sS'lease'
p2142
F7.1014444854088605
sS'kids'
p2143
F9.700010453669382
sS'para'
p2144
F6.116491515213272
sS'frameworks'
p2145
F9.412328381217602
sS'hotel'
p2146
F5.099294618030671
sS'park'
p2147
F6.9627610978749095
sS'powertrain'
p2148
F8.90150275745161
sS'immediate'
p2149
F5.398952881529167
sS'biomass'
p2150
F8.952796051839162
sS'keighley'
p2151
F9.594649938011555
sS'dentist'
p2152
F7.006885902783847
sS'part'
p2153
F3.751975464488736
sS'datawarehouse'
p2154
F8.431499128205875
sS'translation'
p2155
F9.064021686949385
sS'interviewer'
p2156
F8.090572541235282
sS'secretarial'
p2157
F8.496037649343446
sS'apprentice'
p2158
F6.047910251058743
sS'jquery'
p2159
F7.233795936893534
sS'king'
p2160
F4.284404000598245
sS'grocery'
p2161
F8.806192577647286
sS'casework'
p2162
F8.90150275745161
sS'scandinavian'
p2163
F9.700010453669382
sS'youth'
p2164
F7.754100304614069
sS'telford'
p2165
F8.286317118361376
sS'architect'
p2166
F4.967718260241952
sS'pgce'
p2167
F9.700010453669382
sS'dispenser'
p2168
F7.77010064596051
sS'restful'
p2169
F9.332285673544064
sS'interactive'
p2170
F9.064021686949385
sS'cleaner'
p2171
F5.323554864044956
sS'eastbourne'
p2172
F8.40072746953912
sS'forensics'
p2173
F9.499339758207231
sS'outstanding'
p2174
F7.553429609151918
sS'imports'
p2175
F9.189184829903391
sS'urgently'
p2176
F7.224406196543695
sS'uxbridge'
p2177
F8.601398165001273
sS'copenhagen'
p2178
F9.332285673544064
sS'northwich'
p2179
F9.064021686949385
sS'sell'
p2180
F8.026034020097711
sS'sustainment'
p2181
F9.412328381217602
sS'nights'
p2182
F5.959698825923175
sS'outbound'
p2183
F6.588967333604397
sS'relationship'
p2184
F6.732449057082087
sS'zero'
p2185
F9.12464630876582
sS'kpackage'
p2186
F9.258177701390343
sS'self'
p2187
F7.282114514164342
sS'scotland'
p2188
F5.49697758569678
sS'officers'
p2189
F8.159565412722234
sS'outsourcing'
p2190
F8.341886969516187
sS'labour'
p2191
F6.17692325439819
sS'build'
p2192
F5.420262668115918
sS'donor'
p2193
F8.341886969516187
sS'hrbp'
p2194
F8.6783592061374
sS'foreman'
p2195
F7.677727325829495
sS'play'
p2196
F7.29206484501751
sS'experienced'
p2197
F5.835778112077584
sS'electric'
p2198
F4.372673804720241
sS'exec'
p2199
F3.081419827099249
sS'programmers'
p2200
F9.006863273109436
sS'multilingual'
p2201
F8.341886969516187
sS'reach'
p2202
F7.836792020459182
sS'architects'
p2203
F9.258177701390343
sS'serviced'
p2204
F9.594649938011555
sS'dscj'
p2205
F9.700010453669382
sS'plan'
p2206
F4.467120892443801
sS'severn'
p2207
F9.594649938011555
sS'services'
p2208
F4.31043149584302
sS'prestige'
p2209
F8.40072746953912
sS'stevenage'
p2210
F8.529939201019127
sS'salary'
p2211
F6.977254105177477
sS'southampton'
p2212
F6.598917664457565
sS'dealers'
p2213
F7.224406196543695
sS'windows'
p2214
F5.895820153044451
sS'cover'
p2215
F5.4004600408197385
sS'outpatients'
p2216
F8.6783592061374
sS'traditional'
p2217
F9.258177701390343
sS'optical'
p2218
F7.196754665213185
sS'mechatronics'
p2219
F9.594649938011555
sS'chester'
p2220
F4.704300809789802
sS'clean'
p2221
F4.951221039906374
sS'physics'
p2222
F7.634555153964286
sS'microsoft'
p2223
F6.508163301189101
sS'sector'
p2224
F6.251788133362364
sS'multimedia'
p2225
F8.719181200657657
sS'golf'
p2226
F8.806192577647286
sS'gold'
p2227
F7.386375524488751
sS'bromley'
p2228
F7.945991312424174
sS'commissions'
p2229
F9.189184829903391
sS'bookings'
p2230
F9.594649938011555
sS'freight'
p2231
F7.135061096207846
sS'algorithms'
p2232
F9.258177701390343
sS'fine'
p2233
F7.397425360675337
sS'networks'
p2234
F7.854183763171052
sS'costing'
p2235
F8.952796051839162
sS'barking'
p2236
F9.594649938011555
sS'multichannel'
p2237
F8.761740815076452
sS'access'
p2238
F6.650210958845116
sS'giant'
p2239
F8.761740815076452
sS'northern'
p2240
F8.026034020097711
sS'derry'
p2241
F8.6783592061374
sS'justice'
p2242
F9.332285673544064
sS'writer'
p2243
F5.92342541913634
sS'generators'
p2244
F8.63913849298412
sS'equity'
p2245
F7.397425360675337
sS'circle'
p2246
F9.258177701390343
sS'tendering'
p2247
F8.719181200657657
sS'stokeontrent'
p2248
F8.431499128205875
sS'paying'
p2249
F9.700010453669382
sS'managerfashion'
p2250
F9.332285673544064
sS'reigate'
p2251
F8.719181200657657
sS'express'
p2252
F9.006863273109436
sS'highend'
p2253
F9.412328381217602
sS'famous'
p2254
F9.258177701390343
sS'cote'
p2255
F9.412328381217602
sS'actions'
p2256
F8.313716092549491
sS'shared'
p2257
F7.7863611668322905
sS'buckinghamshire'
p2258
F6.853809914086355
sS'merchandise'
p2259
F6.18020732959938
sS'compiler'
p2260
F8.952796051839162
sS'appeal'
p2261
F9.006863273109436
sS'luton'
p2262
F7.566501690719271
sS'blun'
p2263
F9.700010453669382
sS'stirling'
p2264
F9.594649938011555
sS'blackpool'
p2265
F8.806192577647286
sS'groundworkers'
p2266
F9.332285673544064
sS'banking'
p2267
F5.717218377353029
sS'safeguarding'
p2268
F8.63913849298412
sS'logistic'
p2269
F6.167135248032027
sS'activity'
p2270
F8.565030520830398
sS'switzerland'
p2271
F8.952796051839162
sS'tanker'
p2272
F9.12464630876582
sS'restaurants'
p2273
F8.601398165001273
sS'manger'
p2274
F8.259648871279216
sS'bars'
p2275
F8.40072746953912
sS'forensic'
p2276
F7.945991312424174
sS'artworker'
p2277
F7.945991312424174
sS'dump'
p2278
F7.854183763171052
sS'supporting'
p2279
F9.594649938011555
sS'intelligence'
p2280
F6.424964357334127
sS'startup'
p2281
F7.9852120255774555
sS'gloucs'
p2282
F9.12464630876582
sS'culture'
p2283
F8.183662964301293
sS'individual'
p2284
F8.90150275745161
sS'inhouse'
p2285
F7.408598661273461
sS'migration'
p2286
F7.037422626643929
sS'tender'
p2287
F7.51520839633172
sS'close'
p2288
F8.6783592061374
sS'despatch'
p2289
F8.761740815076452
sS'hole'
p2290
F7.2058871487764575
sS'analog'
p2291
F7.29206484501751
sS'repairs'
p2292
F8.529939201019127
sS'negotiator'
p2293
F5.840451017776977
sS'visiting'
p2294
F9.412328381217602
sS'various'
p2295
F7.836792020459182
sS'assistants'
p2296
F6.190124766256726
sS'swansea'
p2297
F7.9852120255774555
sS'funeral'
p2298
F9.700010453669382
sS'available'
p2299
F6.9627610978749095
sS'surbiton'
p2300
F9.700010453669382
sS'latin'
p2301
F8.85271259328218
sS'xslt'
p2302
F9.412328381217602
sS'premises'
p2303
F9.499339758207231
sS'didcot'
p2304
F9.700010453669382
sS'javascript'
p2305
F5.8641488092068
sS'moodle'
p2306
F9.258177701390343
sS'spray'
p2307
F8.13603491531204
sS'coffee'
p2308
F8.11304539708734
sS'waitrose'
p2309
F9.594649938011555
sS'franchise'
p2310
F7.045204767085984
sS'printing'
p2311
F9.594649938011555
sS'franchisee'
p2312
F8.806192577647286
sS'franchised'
p2313
F7.620568911989547
sS'substation'
p2314
F9.12464630876582
sS'prospects'
p2315
F8.719181200657657
sS'mths'
p2316
F9.412328381217602
sS'license'
p2317
F8.63913849298412
sS'restaurant'
p2318
F4.789809556894896
sS'procure'
p2319
F6.025117241530186
sS'offending'
p2320
F8.952796051839162
sS'foreign'
p2321
F8.496037649343446
sS'kitchens'
p2322
F9.189184829903391
sS'malden'
p2323
F9.700010453669382
sS'groundworks'
p2324
F8.13603491531204
sS'hairdressing'
p2325
F9.258177701390343
sS'load'
p2326
F7.889901845773131
sS'electrician'
p2327
F6.383806284840619
sS'point'
p2328
F5.794676436392033
sS'loan'
p2329
F7.9852120255774555
sS'forklift'
p2330
F7.54052620431601
sS'community'
p2331
F5.54112737030971
sS'hiab'
p2332
F8.341886969516187
sS'agents'
p2333
F6.853809914086355
sS'linux'
p2334
F5.62813874729934
sS'vessel'
p2335
F9.258177701390343
sS'asda'
p2336
F9.332285673544064
sS'improvement'
p2337
F6.755571474502942
sS'decorator'
p2338
F8.761740815076452
sS'swindon'
p2339
F7.1436448398992365
sS'backend'
p2340
F8.761740815076452
sS'roofing'
p2341
F8.761740815076452
sS'lecturers'
p2342
F9.006863273109436
sS'java'
p2343
F4.411743422974847
sS'publishing'
p2344
F7.6487397889562425
sS'patroller'
p2345
F9.700010453669382
sS'acceptance'
p2346
F9.412328381217602
sS'strategy'
p2347
F6.693228343928806
sS'whitchurch'
p2348
F9.700010453669382
sS'refrigeration'
p2349
F7.364635537852346
sS'maintenance'
p2350
F4.6089906299854775
sS'territory'
p2351
F6.634544842100716
sS'meeting'
p2352
F8.719181200657657
sS'newbury'
p2353
F7.908250984441327
sS'firm'
p2354
F5.8859678566014395
sS'falkirk'
p2355
F9.412328381217602
sS'flight'
p2356
F9.064021686949385
sS'dorchester'
p2357
F8.286317118361376
sS'fire'
p2358
F6.517337677465142
sS'precision'
p2359
F8.719181200657657
sS'modelling'
p2360
F7.05304794454701
sS'fund'
p2361
F5.382522340133072
sS'lives'
p2362
F8.90150275745161
sS'representative'
p2363
F5.429536304901248
sS'demand'
p2364
F7.566501690719271
sS'turkish'
p2365
F9.064021686949385
sS'instructor'
p2366
F7.093213986272345
sS'packers'
p2367
F9.499339758207231
sS'scottish'
p2368
F9.258177701390343
sS'handling'
p2369
F8.496037649343446
sS'valeter'
p2370
F9.258177701390343
sS'solid'
p2371
F7.620568911989547
sS'straight'
p2372
F8.259648871279216
sS'mpls'
p2373
F9.12464630876582
sS'budget'
p2374
F9.594649938011555
sS'cluster'
p2375
F8.159565412722234
sS'fleet'
p2376
F6.8865997369093455
sS'guide'
p2377
F9.189184829903391
sS'bespoke'
p2378
F8.529939201019127
sS'engineers'
p2379
F5.817301835910011
sS'pound'
p2380
F7.0689212937033
sS'funded'
p2381
F9.332285673544064
sS'motors'
p2382
F8.63913849298412
sS'canvasser'
p2383
F8.259648871279216
sS'facade'
p2384
F9.499339758207231
sS'carbon'
p2385
F9.12464630876582
sS'audi'
p2386
F4.887826098296965
sS'bluewater'
p2387
F8.90150275745161
sS'cuisine'
p2388
F8.63913849298412
sS'clerical'
p2389
F7.7383519476459295
sS'italy'
p2390
F9.594649938011555
sS'trial'
p2391
F6.147842045097348
sS'carluccio'
p2392
F8.431499128205875
sS'albans'
p2393
F8.11304539708734
sS'hadoop'
p2394
F8.952796051839162
sS'barnet'
p2395
F8.719181200657657
sS'textile'
p2396
F8.6783592061374
sS'newham'
p2397
F8.601398165001273
sS'corridor'
p2398
F8.259648871279216
sS'peoples'
p2399
F8.952796051839162
sS'products'
p2400
F6.847379023756065
sS'higher'
p2401
F8.005414732894975
sS'development'
p2402
F3.5814238991220613
sS'calculation'
p2403
F9.594649938011555
sS'used'
p2404
F7.566501690719271
sS'temporary'
p2405
F5.799160748839361
sS'biochemist'
p2406
F9.006863273109436
sS'humber'
p2407
F8.496037649343446
sS'bonus'
p2408
F5.856980319728187
sS'assignment'
p2409
F9.412328381217602
sS'gallery'
p2410
F9.12464630876582
sS'bexley'
p2411
F9.594649938011555
sS'burnley'
p2412
F8.806192577647286
sS'marie'
p2413
F9.700010453669382
sS'ccip'
p2414
F8.85271259328218
sS'levels'
p2415
F7.6487397889562425
sS'moving'
p2416
F9.700010453669382
sS'user'
p2417
F6.755571474502942
sS'orpington'
p2418
F9.412328381217602
sS'malvern'
p2419
F9.499339758207231
sS'tsql'
p2420
F7.4905157837413485
sS'wilmslow'
p2421
F8.496037649343446
sS'euro'
p2422
F6.163893754107856
sS'elec'
p2423
F3.8928694660260277
sS'older'
p2424
F7.1436448398992365
sS'postcodes'
p2425
F9.700010453669382
sS'analysis'
p2426
F6.847379023756065
sS'opticians'
p2427
F9.332285673544064
sS'person'
p2428
F5.206392753587038
sS'edge'
p2429
F5.53248427415369
sS'auditor'
p2430
F6.022304300153571
sS'theatres'
p2431
F9.700010453669382
sS'entry'
p2432
F6.170387283418404
sS'chemistry'
p2433
F7.34335813940506
sS'transactional'
p2434
F9.700010453669382
sS'prevention'
p2435
F8.719181200657657
sS'hastings'
p2436
F8.85271259328218
sS'sims'
p2437
F9.332285673544064
sS'ambassador'
p2438
F9.332285673544064
sS'brentwood'
p2439
F8.90150275745161
sS'responsible'
p2440
F9.258177701390343
sS'blur'
p2441
F9.700010453669382
sS'deployment'
p2442
F8.208355576891664
sS'examinations'
p2443
F9.189184829903391
sS'technicians'
p2444
F7.60677558985721
sS'suffolk'
p2445
F6.991960252567172
sS'mysql'
p2446
F6.485588979150561
sS'boxi'
p2447
F9.412328381217602
sS'alternative'
p2448
F9.12464630876582
sS'geoscientist'
p2449
F9.594649938011555
sS'prince'
p2450
F7.9269431174534795
sS'timber'
p2451
F9.594649938011555
sS'letting'
p2452
F6.262445427836352
sS'ticketing'
p2453
F9.189184829903391
sS'loading'
p2454
F9.189184829903391
sS'reconciliations'
p2455
F9.189184829903391
sS'advisers'
p2456
F8.761740815076452
sS'workers'
p2457
F5.5604092998591605
sS'calibre'
p2458
F9.12464630876582
sS'contractor'
p2459
F7.006885902783847
sS'source'
p2460
F5.910783025721163
sS'internal'
p2461
F5.165024324538395
sS'borehamwood'
p2462
F9.700010453669382
sS'exhibition'
p2463
F7.707580288979176
sS'sydney'
p2464
F9.594649938011555
sS'input'
p2465
F9.064021686949385
sS'administrative'
p2466
F7.364635537852346
sS'transformation'
p2467
F7.77010064596051
sS'extrusion'
p2468
F9.412328381217602
sS'complaint'
p2469
F7.871883340270452
sS'australia'
p2470
F7.7863611668322905
sS'vendor'
p2471
F7.9852120255774555
sS'emergency'
p2472
F7.836792020459182
sS'format'
p2473
F5.796916078985538
sS'couple'
p2474
F9.332285673544064
sS'advocate'
p2475
F9.412328381217602
sS'lincoln'
p2476
F7.187704829693267
sS'game'
p2477
F7.52778717853858
sS'aerospace'
p2478
F6.847379023756065
sS'notts'
p2479
F9.499339758207231
sS'sustainable'
p2480
F9.006863273109436
sS'carers'
p2481
F7.9852120255774555
sS'projects'
p2482
F6.348158946110382
sS'documentum'
p2483
F9.700010453669382
sS'optician'
p2484
F7.27226221772133
sS'semi'
p2485
F6.927421731429601
sS'6month'
p2486
F9.332285673544064
sS'signal'
p2487
F7.889901845773131
sS'instore'
p2488
F8.761740815076452
sS'communications'
p2489
F5.620591541663957
sS'clapham'
p2490
F9.700010453669382
sS'vibrant'
p2491
F8.37087450638944
sS'popular'
p2492
F8.806192577647286
sS'stylish'
p2493
F8.090572541235282
sS'composites'
p2494
F9.332285673544064
sS'disorder'
p2495
F8.952796051839162
sS'essential'
p2496
F7.871883340270452
sS'mathematical'
p2497
F9.499339758207231
sS'google'
p2498
F8.719181200657657
sS'woking'
p2499
F7.566501690719271
sS'collectors'
p2500
F9.006863273109436
sS'spring'
p2501
F7.442887734752094
sS'lathe'
p2502
F8.026034020097711
sS'back'
p2503
F6.7042781801153915
sS'urgent'
p2504
F5.796916078985538
sS'pack'
p2505
F5.951814422399027
sS'plumbers'
p2506
F9.700010453669382
sS'pricing'
p2507
F6.767336316082528
sS'trendy'
p2508
F9.006863273109436
sS'expeditor'
p2509
F9.258177701390343
sS'brent'
p2510
F7.7383519476459295
sS'qatar'
p2511
F8.761740815076452
sS'creche'
p2512
F9.594649938011555
sS'scala'
p2513
F8.40072746953912
sS'broadband'
p2514
F9.332285673544064
sS'decision'
p2515
F9.189184829903391
sS'veterinary'
p2516
F9.064021686949385
sS'saas'
p2517
F7.854183763171052
sS'integration'
p2518
F7.045204767085984
sS'prop'
p2519
F5.166216930523518
sS'newark'
p2520
F9.12464630876582
sS'discharge'
p2521
F9.700010453669382
sS'innovation'
p2522
F7.7863611668322905
sS'proe'
p2523
F9.258177701390343
sS'ilford'
p2524
F8.719181200657657
sS'eating'
p2525
F7.076953465400565
sS'clientside'
p2526
F9.064021686949385
sS'progressor'
p2527
F9.499339758207231
sS'informatica'
p2528
F8.40072746953912
sS'processing'
p2529
F7.707580288979176
sS'continuing'
p2530
F9.499339758207231
sS'warwickshire'
p2531
F7.243274680848078
sS'stem'
p2532
F4.237120711831673
sS'step'
p2533
F9.258177701390343
sS'employability'
p2534
F7.854183763171052
sS'informatics'
p2535
F9.064021686949385
sS'devloper'
p2536
F9.700010453669382
sS'pipeline'
p2537
F8.601398165001273
sS'goods'
p2538
F7.593169937801432
sS'housekeeping'
p2539
F8.431499128205875
sS'volunteering'
p2540
F9.499339758207231
sS'blackburn'
p2541
F8.159565412722234
sS'simulation'
p2542
F8.159565412722234
sS'drama'
p2543
F8.026034020097711
sS'pmld'
p2544
F8.719181200657657
sS'range'
p2545
F8.719181200657657
sS'oldham'
p2546
F8.806192577647286
sS'messaging'
p2547
F7.9852120255774555
sS'telecomms'
p2548
F9.332285673544064
sS'womens'
p2549
F7.854183763171052
sS'adhoc'
p2550
F9.700010453669382
sS'dietitian'
p2551
F9.332285673544064
sS'block'
p2552
F7.754100304614069
sS'settlements'
p2553
F8.719181200657657
sS'repair'
p2554
F7.178736159710507
sS'draughtsperson'
p2555
F7.945991312424174
sS'greenfield'
p2556
F7.9852120255774555
sS'caretaker'
p2557
F8.005414732894975
sS'within'
p2558
F8.13603491531204
sS'retailer'
p2559
F6.7042781801153915
sS'westonsupermare'
p2560
F9.258177701390343
sS'servers'
p2561
F9.258177701390343
sS'locum'
p2562
F6.019499249225962
sS'frames'
p2563
F9.258177701390343
sS'superintendent'
p2564
F9.064021686949385
sS'perl'
p2565
F7.454583774515285
sS'motorsport'
p2566
F9.594649938011555
sS'awardwinning'
p2567
F9.412328381217602
sS'statistics'
p2568
F9.258177701390343
sS'lond'
p2569
F3.261547945541575
sS'long'
p2570
F7.34335813940506
sS'custom'
p2571
F4.1308181329859455
sS'pharmaceuticals'
p2572
F8.233673384875955
sS'suit'
p2573
F8.259648871279216
sS'forward'
p2574
F7.908250984441327
sS'mrics'
p2575
F8.601398165001273
sS'manufacture'
p2576
F8.208355576891664
sS'promotions'
p2577
F7.754100304614069
sS'mcitp'
p2578
F9.12464630876582
sS'dewsbury'
p2579
F9.064021686949385
sS'registered'
p2580
F4.785722914509445
sS'trainees'
p2581
F8.719181200657657
sS'immigration'
p2582
F7.54052620431601
sS'linq'
p2583
F9.332285673544064
sS'chorley'
p2584
F9.189184829903391
sS'link'
p2585
F8.208355576891664
sS'library'
p2586
F8.952796051839162
sS'switchboard'
p2587
F9.499339758207231
sS'russian'
p2588
F7.945991312424174
sS'crane'
p2589
F7.663128526408342
sS'probate'
p2590
F8.719181200657657
sS'junior'
p2591
F4.728655133741566
sS'info'
p2592
F5.774742221491215
sS'legacy'
p2593
F9.12464630876582
sS'pickers'
p2594
F9.189184829903391
sS'vacancies'
p2595
F8.005414732894975
sS'mobile'
p2596
F5.344727143971012
sS'exploration'
p2597
F9.412328381217602
sS'verification'
p2598
F8.496037649343446
sS'chelsea'
p2599
F8.85271259328218
sS'alarm'
p2600
F7.754100304614069
sS'sudbury'
p2601
F9.258177701390343
sS'aldershot'
p2602
F9.499339758207231
sS'supervisor'
p2603
F4.658020057225796
sS'adults'
p2604
F6.6714883572924
sS'dialler'
p2605
F9.499339758207231
sS'flow'
p2606
F8.496037649343446
sS'bluechip'
p2607
F9.332285673544064
sS'cotswolds'
p2608
F9.064021686949385
sS'metals'
p2609
F9.064021686949385
sS'coordinator'
p2610
F4.366218698927685
sS'engineering'
p2611
F4.970657997782877
sS'associates'
p2612
F8.90150275745161
sS'surveying'
p2613
F9.700010453669382
sS'etrading'
p2614
F9.594649938011555
sS'cafe'
p2615
F7.692542411614635
sS'coder'
p2616
F8.90150275745161
sS'berkshire'
p2617
F6.344275446083984
sS'humanities'
p2618
F7.871883340270452
sS'image'
p2619
F9.594649938011555
sS'edwards'
p2620
F9.189184829903391
sS'application'
p2621
F5.03030174654372
sS'electrical'
p2622
F4.5480042063922665
sS'income'
p2623
F7.233795936893534
sS'department'
p2624
F6.834639997978635
sS'rochdale'
p2625
F9.12464630876582
sS'develope'
p2626
F2.8586324222837285
sS'headteacher'
p2627
F8.159565412722234
sS'scrum'
p2628
F7.620568911989547
sS'wokingham'
p2629
F9.006863273109436
sS'luxurious'
p2630
F9.499339758207231
sS'lens'
p2631
F8.952796051839162
sS'camhs'
p2632
F9.064021686949385
sS'bognor'
p2633
F9.189184829903391
sS'reservation'
p2634
F6.900022757241486
sS'reinsurance'
p2635
F9.064021686949385
sS'meals'
p2636
F9.594649938011555
sS'structure'
p2637
F5.2932912064051285
sS'land'
p2638
F4.5194761227777285
sS'algorithm'
p2639
F8.529939201019127
sS'vice'
p2640
F3.229382963304251
sS'lancashire'
p2641
F7.364635537852346
sS'haywards'
p2642
F9.258177701390343
sS'required'
p2643
F4.8324760032138
sS'wards'
p2644
F7.466418232162288
sS'heath'
p2645
F7.375446453956561
sS'beverage'
p2646
F7.109743288223555
sS'thames'
p2647
F7.663128526408342
sS'gloucestershire'
p2648
F7.2058871487764575
sS'2005'
p2649
F9.594649938011555
sS'oracle'
p2650
F5.68262693258341
sS'fresh'
p2651
F6.934390400745694
sS'2008'
p2652
F9.332285673544064
sS'redhill'
p2653
F8.37087450638944
sS'requires'
p2654
F9.064021686949385
sS'valves'
p2655
F9.332285673544064
sS'surrey'
p2656
F5.696725856962911
sS'etail'
p2657
F4.721745317381379
sS'fitout'
p2658
F8.761740815076452
sS'highways'
p2659
F7.386375524488751
sS'proposition'
p2660
F8.529939201019127
sS'query'
p2661
F7.161036582611106
sS'anglia'
p2662
F8.286317118361376
sS'animal'
p2663
F8.63913849298412
sS'lubricants'
p2664
F9.499339758207231
sS'shanghai'
p2665
F9.594649938011555
sS'young'
p2666
F8.233673384875955
sS'factoring'
p2667
F9.700010453669382
sS'languages'
p2668
F7.854183763171052
sS'critical'
p2669
F7.579746917469291
sS'rollout'
p2670
F9.499339758207231
sS'visitor'
p2671
F8.719181200657657
sS'suite'
p2672
F8.6783592061374
sS'women'
p2673
F7.60677558985721
sS'friendly'
p2674
F9.594649938011555
sS'resources'
p2675
F6.955592608396297
sS'resourcer'
p2676
F6.9627610978749095
sS'larne'
p2677
F9.700010453669382
sS'garden'
p2678
F7.375446453956561
sS'automotive'
p2679
F6.190124766256726
sS'cctv'
p2680
F8.233673384875955
sS'stroud'
p2681
F9.332285673544064
sS'burton'
p2682
F8.719181200657657
sS'grid'
p2683
F9.594649938011555
sS'hove'
p2684
F8.63913849298412
sS'korea'
p2685
F9.064021686949385
sS'harlow'
p2686
F9.189184829903391
sS'childrenswear'
p2687
F9.12464630876582
sS'recreation'
p2688
F9.006863273109436
sS'transmission'
p2689
F8.529939201019127
sS'positions'
p2690
F7.431326912351017
sS'notes'
p2691
F9.594649938011555
sS'bournemouth'
p2692
F7.419898216527395
sS'theale'
p2693
F9.700010453669382
sS'moulding'
p2694
F7.965409398281276
sS'inspection'
p2695
F8.259648871279216
sS'leicestershire'
p2696
F7.7383519476459295
sS'erector'
p2697
F9.12464630876582
sS'logistics'
p2698
F6.186808013630732
sS'biztalk'
p2699
F8.806192577647286
sS'northumberland'
p2700
F8.952796051839162
sS'biased'
p2701
F8.183662964301293
sS'crop'
p2702
F9.258177701390343
sS'waking'
p2703
F8.529939201019127
sS'recruitment'
p2704
F4.008525506823587
sS'video'
p2705
F7.707580288979176
sS'dynamics'
p2706
F6.262445427836352
sS'click'
p2707
F9.332285673544064
sS'vmware'
p2708
F6.709849225164847
sS'reconciliation'
p2709
F8.719181200657657
sS'business'
p2710
F3.216223754359969
sS'giving'
p2711
F8.6783592061374
sS'assisted'
p2712
F8.90150275745161
sS'epsom'
p2713
F8.431499128205875
sS'find'
p2714
F9.412328381217602
sS'cell'
p2715
F6.113409848675864
sS'welwyn'
p2716
F9.332285673544064
sS'waiting'
p2717
F7.9269431174534795
sS'indian'
p2718
F8.90150275745161
sS'capital'
p2719
F6.969981345848397
sS'relocate'
p2720
F9.499339758207231
sS'demolition'
p2721
F9.12464630876582
sS'marketer'
p2722
F7.502785876333163
sS'body'
p2723
F7.593169937801432
sS'completion'
p2724
F9.189184829903391
sS'degree'
p2725
F9.189184829903391
sS'exchange'
p2726
F6.9845801452695495
sS'commercial'
p2727
F4.395048544402677
sS'punch'
p2728
F9.499339758207231
sS'iconic'
p2729
F9.189184829903391
sS'gainsborough'
p2730
F9.332285673544064
sS'peripatetic'
p2731
F8.259648871279216
sS'conveyancer'
p2732
F8.090572541235282
sS'objects'
p2733
F8.068593634516507
sS'focused'
p2734
F8.431499128205875
sS'licence'
p2735
F8.719181200657657
sS'ubuntu'
p2736
F9.594649938011555
sS'volkswagen'
p2737
F9.700010453669382
sS'triage'
p2738
F9.189184829903391
sS'selfemployed'
p2739
F9.412328381217602
sS'great'
p2740
F6.135183648225425
sS'talent'
p2741
F7.29206484501751
sS'metro'
p2742
F8.719181200657657
sS'warehousing'
p2743
F8.719181200657657
sS'technical'
p2744
F4.0160528287785
sS'stratforduponavon'
p2745
F9.258177701390343
sS'latency'
p2746
F9.332285673544064
sS'bookkeeper'
p2747
F7.152302902642352
sS'survey'
p2748
F4.60285773171678
sS'weekday'
p2749
F9.12464630876582
sS'derby'
p2750
F6.743943436507823
sS'maker'
p2751
F6.755571474502942
sS'gastro'
p2752
F6.472285013524199
sS'shovel'
p2753
F9.499339758207231
sS'avionics'
p2754
F9.412328381217602
sS'apple'
p2755
F8.719181200657657
sS'deputy'
p2756
F4.821426167027215
sS'duct'
p2757
F4.209237864612586
sS'zealand'
p2758
F9.499339758207231
sS'manage'
p2759
F1.5311146973049679
sS'experiential'
p2760
F8.761740815076452
sS'private'
p2761
F6.173649929053221
sS'motor'
p2762
F4.926504952862076
sS'apply'
p2763
F8.090572541235282
sS'depute'
p2764
F9.332285673544064
sS'tools'
p2765
F7.722847761109964
sS'cloud'
p2766
F7.31226755233503
sS'rugby'
p2767
F8.431499128205875
sS'cannock'
p2768
F9.189184829903391
sS'devops'
p2769
F8.529939201019127
sS'next'
p2770
F9.12464630876582
sS'perms'
p2771
F8.047087429295543
sS'vehicle'
p2772
F5.790212143263347
sS'stage'
p2773
F6.424964357334127
sS'awesome'
p2774
F9.594649938011555
sS'defendant'
p2775
F8.496037649343446
sS'10pm'
p2776
F9.594649938011555
sS'dispatcher'
p2777
F9.12464630876582
sS'dentists'
p2778
F9.064021686949385
sS'siem'
p2779
F8.719181200657657
sS'apprentices'
p2780
F7.152302902642352
sS'weymouth'
p2781
F8.806192577647286
sS'lounge'
p2782
F8.85271259328218
sS'biller'
p2783
F9.412328381217602
sS'train'
p2784
F4.1492065065732255
sS'labourer'
p2785
F6.273217524818263
sS'grove'
p2786
F8.806192577647286
sS'baby'
p2787
F8.463247826520455
sS'haringey'
p2788
F9.258177701390343
sS'kettering'
p2789
F8.719181200657657
sS'stafford'
p2790
F7.178736159710507
sS'customer'
p2791
F4.135064423867397
sS'account'
p2792
F2.9744434070359653
sS'ride'
p2793
F8.761740815076452
sS'clients'
p2794
F7.722847761109964
sS'publications'
p2795
F9.006863273109436
sS'ccgt'
p2796
F9.412328381217602
sS'industry'
p2797
F6.598917664457565
sS'control'
p2798
F4.2333577723021305
sS'bens'
p2799
F6.927421731429601
sS'wharf'
p2800
F8.529939201019127
sS'patrol'
p2801
F8.208355576891664
sS'speciality'
p2802
F9.499339758207231
sS'process'
p2803
F5.2811698458727845
sS'certification'
p2804
F8.761740815076452
sS'promotional'
p2805
F8.529939201019127
sS'high'
p2806
F5.235380290460291
sS'professor'
p2807
F9.064021686949385
sS'tiler'
p2808
F9.412328381217602
sS'hilton'
p2809
F9.258177701390343
sS'craftsperson'
p2810
F9.700010453669382
sS'sought'
p2811
F9.412328381217602
sS'native'
p2812
F8.183662964301293
sS'educational'
p2813
F8.286317118361376
sS'guru'
p2814
F9.412328381217602
sS'clothing'
p2815
F9.258177701390343
sS'purpose'
p2816
F9.064021686949385
sS'endoscopy'
p2817
F7.579746917469291
sS'hampshire'
p2818
F6.273217524818263
sS'immunology'
p2819
F9.700010453669382
sS'lamp'
p2820
F7.431326912351017
sS'aylesbury'
p2821
F7.908250984441327
sS'forest'
p2822
F8.431499128205875
sS'bilingual'
p2823
F7.802890468783501
sS'cladding'
p2824
F9.412328381217602
sS'establishment'
p2825
F9.499339758207231
sS'stock'
p2826
F6.404173587665053
sS'fare'
p2827
F7.233795936893534
sS'administrator'
p2828
F3.6401087450081717
sS'consumables'
p2829
F9.700010453669382
sS'hemel'
p2830
F8.286317118361376
sS'broking'
p2831
F9.594649938011555
sS'collection'
p2832
F6.715451480713517
sS'cpcs'
p2833
F8.047087429295543
sS'physio'
p2834
F6.853809914086355
sS'psychiatric'
p2835
F9.064021686949385
sS'tier'
p2836
F7.836792020459182
sS'requirements'
p2837
F8.63913849298412
sS'wiltshire'
p2838
F6.991960252567172
sS'light'
p2839
F7.243274680848078
sS'counter'
p2840
F7.593169937801432
sS'lines'
p2841
F7.454583774515285
sS'shropshire'
p2842
F8.63913849298412
sS'commodities'
p2843
F8.183662964301293
sS'bursar'
p2844
F9.189184829903391
sS'chief'
p2845
F6.8865997369093455
sS'healthcare'
p2846
F5.655011765550436
sS'alloy'
p2847
F9.700010453669382
sS'american'
p2848
F8.952796051839162
sS'software'
p2849
F3.8360636713146805
sS'fastest'
p2850
F9.064021686949385
sS'producer'
p2851
F7.27226221772133
sS'commerical'
p2852
F8.90150275745161
sS'insight'
p2853
F6.644961602958972
sS'meter'
p2854
F7.634555153964286
sS'produced'
p2855
F9.594649938011555
sS'gravesend'
p2856
F9.332285673544064
sS'including'
p2857
F9.189184829903391
sS'motorcycle'
p2858
F9.258177701390343
sS'cruise'
p2859
F7.945991312424174
sS'agricultural'
p2860
F8.6783592061374
sS'operative'
p2861
F5.286538986287843
sS'contaminated'
p2862
F9.700010453669382
sS'bridges'
p2863
F6.779241218588846
sS'flemish'
p2864
F9.412328381217602
sS'accredited'
p2865
F9.700010453669382
sS'winning'
p2866
F6.660793068175653
sS'cscs'
p2867
F7.442887734752094
sS'estimating'
p2868
F8.313716092549491
sS'permanent'
p2869
F6.0083570726727205
sS'biomedical'
p2870
F8.719181200657657
sS'instruments'
p2871
F9.332285673544064
sS'2014'
p2872
F9.499339758207231
sS'holiday'
p2873
F8.233673384875955
sS'2010'
p2874
F8.259648871279216
sS'2013'
p2875
F6.490063259545483
sS'2012'
p2876
F8.37087450638944
sS'flex'
p2877
F7.2528441318642285
sS'greater'
p2878
F7.187704829693267
sS'python'
p2879
F7.01443310841923
sS'auto'
p2880
F5.339037228193333
sS'melksham'
p2881
F9.258177701390343
sS'material'
p2882
F6.698737999739776
sS'merton'
p2883
F8.85271259328218
sS'lettings'
p2884
F6.321285927859285
sS'belt'
p2885
F8.85271259328218
sS'cutting'
p2886
F8.431499128205875
sS'salesforcecom'
p2887
F8.806192577647286
sS'hands'
p2888
F8.37087450638944
sS'front'
p2889
F5.480502748493276
sS'colchester'
p2890
F8.208355576891664
sS'cakephp'
p2891
F9.412328381217602
sS'investor'
p2892
F9.189184829903391
sS'handy'
p2893
F8.313716092549491
sS'preschool'
p2894
F9.064021686949385
sS'literacy'
p2895
F8.601398165001273
sS'salford'
p2896
F8.431499128205875
sS'february'
p2897
F8.6783592061374
sS'retentions'
p2898
F8.90150275745161
sS'airports'
p2899
F9.499339758207231
sS'ultrasound'
p2900
F9.332285673544064
sS'fundraisers'
p2901
F7.945991312424174
sS'university'
p2902
F9.064021686949385
sS'polisher'
p2903
F9.594649938011555
sS'poole'
p2904
F7.819697587099882
sS'lingerie'
p2905
F8.761740815076452
sS'electrically'
p2906
F8.761740815076452
sS'crossing'
p2907
F8.761740815076452
sS'camden'
p2908
F8.40072746953912
sS'banqueting'
p2909
F7.9269431174534795
sS'seniors'
p2910
F9.700010453669382
sS'profile'
p2911
F8.183662964301293
sS'telemarketer'
p2912
F7.6487397889562425
sS'parties'
p2913
F9.499339758207231
sS'buildings'
p2914
F9.064021686949385
sS'croydon'
p2915
F7.1436448398992365
sS'frequency'
p2916
F9.412328381217602
sS'static'
p2917
F8.601398165001273
sS'subsea'
p2918
F7.6487397889562425
sS'citrix'
p2919
F7.1436448398992365
sS'programmer'
p2920
F5.448345636858744
sS'programmes'
p2921
F8.183662964301293
sS'sexual'
p2922
F8.496037649343446
sS'special'
p2923
F4.4856787431944385
sS'category'
p2924
F6.387846694377624
sS'entertainment'
p2925
F7.262506042775966
sS'boutique'
p2926
F7.037422626643929
sS'valve'
p2927
F8.719181200657657
sS'farm'
p2928
F8.463247826520455
sS'mate'
p2929
F5.515419013599503
sS'dhcp'
p2930
F9.594649938011555
sS'electronics'
p2931
F5.6262465991473025
sS'integrated'
p2932
F7.442887734752094
sS'math'
p2933
F5.776937612054651
sS'adhesives'
p2934
F9.594649938011555
sS'bexhill'
p2935
F9.412328381217602
sS'payroll'
p2936
F5.4420364676654795
sS'temps'
p2937
F8.6783592061374
sS'release'
p2938
F7.419898216527395
sS'york'
p2939
F5.594616055260697
sS'advisor'
p2940
F3.9209830872599785
sS'regulatory'
p2941
F6.559696951304283
sS'sabre'
p2942
F9.12464630876582
sS'paeds'
p2943
F9.412328381217602
sS'tenant'
p2944
F9.412328381217602
sS'interaction'
p2945
F9.12464630876582
sS'yard'
p2946
F8.565030520830398
sS'sustainability'
p2947
F8.026034020097711
sS'misuse'
p2948
F8.341886969516187
sS'route'
p2949
F9.332285673544064
sS'area'
p2950
F4.904219908072641
sS'times'
p2951
F7.620568911989547
sS'allied'
p2952
F6.682299273396616
sS'registrar'
p2953
F9.700010453669382
sS'qualification'
p2954
F9.412328381217602
sS'busines'
p2955
F3.215205597136429
sS'retail'
p2956
F4.740278666389965
sS'recruiter'
p2957
F6.834639997978635
sS'south'
p2958
F4.676129932823105
sS'plastics'
p2959
F9.064021686949385
sS'intruder'
p2960
F9.594649938011555
sS'indesign'
p2961
F9.594649938011555
sS'metering'
p2962
F9.412328381217602
sS'strategic'
p2963
F7.045204767085984
sS'cardiac'
p2964
F8.565030520830398
sS'solderer'
p2965
F9.189184829903391
sS'improvements'
p2966
F9.189184829903391
sS'owner'
p2967
F8.11304539708734
sS'probation'
p2968
F9.332285673544064
sS'quality'
p2969
F4.55575117864244
sS'management'
p2970
F4.3656826495983125
sS'publication'
p2971
F8.719181200657657
sS'practitioners'
p2972
F7.408598661273461
sS'atkinson'
p2973
F9.064021686949385
sS'creator'
p2974
F9.700010453669382
sS'system'
p2975
F4.23900750484425
sS'relations'
p2976
F6.154231843196119
sS'gcse'
p2977
F9.594649938011555
sS'intermediate'
p2978
F6.969981345848397
sS'wovens'
p2979
F9.499339758207231
sS'podiatrist'
p2980
F9.412328381217602
sS'chemotherapy'
p2981
F9.499339758207231
sS'norton'
p2982
F9.499339758207231
sS'final'
p2983
F9.412328381217602
sS'cabin'
p2984
F9.258177701390343
sS'enforcement'
p2985
F8.233673384875955
sS'shell'
p2986
F9.189184829903391
sS'academy'
p2987
F8.208355576891664
sS'stress'
p2988
F7.322524052502219
sS'midlevel'
p2989
F8.806192577647286
sS'environmental'
p2990
F6.535942865296176
sS'chemicals'
p2991
F8.952796051839162
sS'incident'
p2992
F8.496037649343446
sS'homebased'
p2993
F8.6783592061374
sS'steel'
p2994
F7.663128526408342
sS'photograph'
p2995
F9.006863273109436
sS'liquid'
p2996
F8.496037649343446
sS'split'
p2997
F9.499339758207231
sS'labourers'
p2998
F9.064021686949385
sS'sourcing'
p2999
F6.6714883572924
sS'lisburn'
p3000
F9.332285673544064
sS'caterer'
p3001
F9.700010453669382
sS'sipp'
p3002
F9.006863273109436
sS'referral'
p3003
F8.005414732894975
sS'aspnet'
p3004
F4.847112510736542
sS'helpline'
p3005
F9.700010453669382
sS'grails'
p3006
F9.189184829903391
sS'partnership'
p3007
F7.233795936893534
sS'wireman'
p3008
F8.90150275745161
sS'receptionist'
p3009
F5.6608654408018975
sS'need'
p3010
F5.166216930523518
sS'dementia'
p3011
F7.408598661273461
sS'border'
p3012
F8.37087450638944
sS'instrumentation'
p3013
F7.51520839633172
sS'grads'
p3014
F9.332285673544064
sS'brokers'
p3015
F8.286317118361376
sS'cranes'
p3016
F9.332285673544064
sS'aberdeen'
p3017
F6.375774113143355
sS'agency'
p3018
F5.216380352215387
sS'bakery'
p3019
F8.6783592061374
sS'purchasing'
p3020
F6.6877488781641805
sS'transporter'
p3021
F9.412328381217602
sS'cotswold'
p3022
F8.806192577647286
sS'financials'
p3023
F8.431499128205875
sS'ganger'
p3024
F9.700010453669382
sS'korean'
p3025
F9.332285673544064
sS'pharmacist'
p3026
F8.208355576891664
sS'soap'
p3027
F9.499339758207231
sS'lecturer'
p3028
F6.089092541025158
sS'chair'
p3029
F8.806192577647286
sS'manor'
p3030
F9.499339758207231
sS'centre'
p3031
F5.189150947152532
sS'collaboration'
p3032
F9.700010453669382
sS'sewing'
p3033
F8.341886969516187
sS'dutch'
p3034
F7.135061096207846
sS'accountants'
p3035
F8.761740815076452
sS'roadside'
p3036
F9.12464630876582
sS'counterbalance'
p3037
F8.529939201019127
sS'device'
p3038
F7.502785876333163
sS'class'
p3039
F5.616839192045407
sS'delivery'
p3040
F5.792441798590616
sS'plumber'
p3041
F7.722847761109964
sS'placement'
p3042
F8.463247826520455
sS'expert'
p3043
F7.243274680848078
sS'archiving'
p3044
F9.700010453669382
sS'nuneaton'
p3045
F8.761740815076452
sS'disease'
p3046
F7.965409398281276
sS'face'
p3047
F7.419898216527395
sS'pipe'
p3048
F7.419898216527395
sS'ascot'
p3049
F9.412328381217602
sS'hgv1'
p3050
F8.85271259328218
sS'mechanical'
p3051
F4.258555207129489
sS'built'
p3052
F9.412328381217602
sS'leasehold'
p3053
F8.806192577647286
sS'emerging'
p3054
F8.85271259328218
sS'selection'
p3055
F9.332285673544064
sS'text'
p3056
F8.431499128205875
sS'supported'
p3057
F8.068593634516507
sS'vacancy'
p3058
F7.54052620431601
sS'fabricators'
p3059
F9.594649938011555
sS'planning'
p3060
F5.534206927465136
sS'manchester'
p3061
F5.157898403648428
sS'lloyd'
p3062
F8.761740815076452
sS'rouge'
p3063
F8.159565412722234
sS'portfolio'
p3064
F7.1014444854088605
sS'economist'
p3065
F8.601398165001273
sS'technologies'
p3066
F8.40072746953912
sS'staff'
p3067
F4.59743766424744
sS'litigation'
p3068
F6.655488015945959
sS'partners'
p3069
F7.01443310841923
sS'based'
p3070
F5.696725856962911
sS'comms'
p3071
F7.478394423209004
sS'prescriber'
p3072
F8.601398165001273
sS'micros'
p3073
F6.459155722082406
sS'basel'
p3074
F9.594649938011555
sS'controls'
p3075
F6.53125901598375
sS'operational'
p3076
F7.135061096207846
sS'earner'
p3077
F7.093213986272345
sS'northallerton'
p3078
F9.189184829903391
sS'employee'
p3079
F7.620568911989547
sS'employed'
p3080
F7.262506042775966
sS'local'
p3081
F7.233795936893534
sS'secretaries'
p3082
F9.412328381217602
sS'austell'
p3083
F9.594649938011555
sS'merchandiser'
p3084
F6.284106924617531
sS'grinstead'
p3085
F9.006863273109436
sS'move'
p3086
F8.159565412722234
sS'specifications'
p3087
F9.006863273109436
sS'exceptional'
p3088
F8.496037649343446
sS'managerhigh'
p3089
F9.594649938011555
sS'indirects'
p3090
F9.332285673544064
sS'chippenham'
p3091
F8.761740815076452
sS'joint'
p3092
F8.40072746953912
sS'altrincham'
p3093
F8.761740815076452
sS'buyer'
p3094
F5.467515552966464
sS'tipton'
p3095
F9.700010453669382
sS'entity'
p3096
F8.341886969516187
sS'generalist'
p3097
F8.463247826520455
sS'areas'
p3098
F7.302115180871011
sS'processes'
p3099
F9.499339758207231
sS'trucks'
p3100
F9.594649938011555
sS'partie'
p3101
F4.990480252357048
sS'denmark'
p3102
F9.499339758207231
sS'fixer'
p3103
F9.258177701390343
sS'symfony'
p3104
F9.412328381217602
sS'calling'
p3105
F7.707580288979176
sS'heidenhain'
p3106
F9.499339758207231
sS'fixed'
p3107
F6.3717820918738175
sS'grad'
p3108
F4.128701730079568
sS'conduct'
p3109
F8.761740815076452
sS'banklondon'
p3110
F9.499339758207231
sS'view'
p3111
F6.55490077904079
sS'europe'
p3112
F6.408297304848915
sS'requirement'
p3113
F8.341886969516187
sS'packer'
p3114
F8.463247826520455
sS'catastrophic'
p3115
F9.412328381217602
sS'frame'
p3116
F7.707580288979176
sS'rscn'
p3117
F8.431499128205875
sS'edition'
p3118
F9.064021686949385
sS'computer'
p3119
F7.889901845773131
sS'powder'
p3120
F9.412328381217602
sS'enhanced'
p3121
F8.565030520830398
sS'interpreter'
p3122
F9.006863273109436
sS'stack'
p3123
F9.700010453669382
sS'telemarketers'
p3124
F9.594649938011555
sS'systmone'
p3125
F9.412328381217602
sS'manufacturer'
p3126
F8.40072746953912
sS'closer'
p3127
F9.332285673544064
sS'wire'
p3128
F7.2058871487764575
sS'nuclear'
p3129
F7.692542411614635
sS'ccie'
p3130
F8.159565412722234
sS'lectureship'
p3131
F9.594649938011555
sS'superb'
p3132
F8.565030520830398
sS'xray'
p3133
F9.064021686949385
sS'state'
p3134
F5.746632262559322
sS'difficulties'
p3135
F9.499339758207231
sS'verilog'
p3136
F9.412328381217602
sS'tyre'
p3137
F9.258177701390343
sS'bedfordshire'
p3138
F7.31226755233503
sS'progress'
p3139
F7.243274680848078
sS'wembley'
p3140
F9.499339758207231
sS'email'
p3141
F7.502785876333163
sS'sole'
p3142
F9.189184829903391
sS'ability'
p3143
F6.132043928220757
sS'opening'
p3144
F6.4000668057124
sS'letchworth'
p3145
F9.12464630876582
sS'beverages'
p3146
F9.700010453669382
sS'agencies'
p3147
F9.594649938011555
sS'efficiency'
p3148
F9.258177701390343
sS'avon'
p3149
F8.005414732894975
sS'configuration'
p3150
F7.620568911989547
sS'swift'
p3151
F9.700010453669382
sS'problem'
p3152
F7.9269431174534795
sS'monitor'
p3153
F7.29206484501751
sS'southeast'
p3154
F9.700010453669382
sS'career'
p3155
F6.709849225164847
sS'constructive'
p3156
F9.594649938011555
sS'aircraft'
p3157
F8.233673384875955
sS'drug'
p3158
F8.431499128205875
sS'rams'
p3159
F9.412328381217602
sS'april'
p3160
F8.40072746953912
sS'bristol'
p3161
F5.50364427705497
sS'tactical'
p3162
F9.594649938011555
sS'dunfermline'
p3163
F9.499339758207231
sS'jersey'
p3164
F8.208355576891664
sS'wear'
p3165
F6.241243220185749
sS'allocator'
p3166
F9.258177701390343
sS'wall'
p3167
F7.161036582611106
sS'fostering'
p3168
F7.677727325829495
sS'walk'
p3169
F9.12464630876582
sS'packaging'
p3170
F7.109743288223555
sS'interface'
p3171
F8.026034020097711
sS'adjuster'
p3172
F7.836792020459182
sS'groundworker'
p3173
F7.663128526408342
sS'kings'
p3174
F7.454583774515285
sS'technologist'
p3175
F6.332714623682908
sS'earning'
p3176
F5.431090306767982
sS'second'
p3177
F6.167135248032027
sS'tyrone'
p3178
F9.258177701390343
sS'decent'
p3179
F9.064021686949385
sS'wills'
p3180
F9.412328381217602
sS'copier'
p3181
F7.431326912351017
sS'coaching'
p3182
F8.85271259328218
sS'tutor'
p3183
F6.467889402051161
sS'warwick'
p3184
F6.927421731429601
sS'curtain'
p3185
F9.594649938011555
sS'proposal'
p3186
F7.54052620431601
sS'waste'
p3187
F7.037422626643929
sS'kidlington'
p3188
F9.499339758207231
sS'liverpool'
p3189
F6.433403225979991
sS'finisher'
p3190
F9.006863273109436
sS'valuations'
p3191
F8.952796051839162
sS'inbound'
p3192
F6.977254105177477
sS'replenishment'
p3193
F9.594649938011555
sS'ipswich'
p3194
F7.566501690719271
sS'controller'
p3195
F4.709577866890646
sS'accident'
p3196
F8.63913849298412
sS'graphics'
p3197
F7.593169937801432
sS'general'
p3198
F4.510144795348845
sS'digger'
p3199
F9.12464630876582
sS'painter'
p3200
F8.068593634516507
sS'volunteer'
p3201
F8.259648871279216
sS'homes'
p3202
F7.187704829693267
sS'multi'
p3203
F5.361993759991943
sS'ndash'
p3204
F7.478394423209004
sS'laser'
p3205
F8.496037649343446
sS'richmond'
p3206
F7.889901845773131
sS'apqp'
p3207
F9.594649938011555
sS'value'
p3208
F7.819697587099882
sS'surveyors'
p3209
F7.802890468783501
sS'stunning'
p3210
F7.169847212293261
sS'reliability'
p3211
F8.208355576891664
sS'intranet'
p3212
F9.12464630876582
sS'layer'
p3213
F7.408598661273461
sS'midwife'
p3214
F9.064021686949385
sS'omni'
p3215
F9.189184829903391
sS'resident'
p3216
F5.544605634686035
sS'molecular'
p3217
F9.12464630876582
sS'site'
p3218
F5.134505524073722
sS'surface'
p3219
F9.006863273109436
sS'demi'
p3220
F6.76143659395534
sS'hardware'
p3221
F6.540648756333589
sS'dual'
p3222
F8.208355576891664
sS'arabia'
p3223
F8.90150275745161
sS'partner'
p3224
F5.156715671399378
sS'inspector'
p3225
F6.375774113143355
sS'henley'
p3226
F9.258177701390343
sS'revit'
p3227
F8.806192577647286
sS'dorking'
p3228
F9.189184829903391
sS'grinder'
p3229
F8.11304539708734
sS'metrology'
p3230
F9.258177701390343
sS'cables'
p3231
F9.412328381217602
sS'subcontract'
p3232
F8.952796051839162
sS'administration'
p3233
F6.170387283418404
sS'cross'
p3234
F7.397425360675337
sS'member'
p3235
F6.446196577439901
sS'unity'
p3236
F5.009682459340984
sS'parts'
p3237
F7.118111537894072
sS'speaker'
p3238
F6.9845801452695495
sS'casualty'
p3239
F8.90150275745161
sS'largest'
p3240
F9.594649938011555
sS'units'
p3241
F9.499339758207231
sS'games'
p3242
F7.836792020459182
sS'android'
p3243
F6.698737999739776
sS'acirc'
p3244
F9.412328381217602
sS'southendonsea'
p3245
F9.412328381217602
sS'practice'
p3246
F6.332714623682908
sS'practitioner'
p3247
F5.485416763295705
sS'gastroenterology'
p3248
F9.700010453669382
sS'reporting'
p3249
F6.200141544500197
sS'upon'
p3250
F7.27226221772133
sS'automation'
p3251
F6.4000668057124
sS'student'
p3252
F7.1436448398992365
sS'robotic'
p3253
F9.189184829903391
sS'collar'
p3254
F9.700010453669382
sS'identity'
p3255
F8.90150275745161
sS'diabetes'
p3256
F8.6783592061374
sS'audit'
p3257
F5.0620504448583
sS'tyne'
p3258
F7.908250984441327
sS'mech'
p3259
F4.141896218159101
sS'basingstoke'
p3260
F7.2528441318642285
sS'lunch'
p3261
F9.006863273109436
sS'newry'
p3262
F9.332285673544064
sS'bridgford'
p3263
F9.332285673544064
sS'builder'
p3264
F8.233673384875955
sS'ingredients'
p3265
F9.700010453669382
sS'well'
p3266
F6.375774113143355
sS'procurement'
p3267
F6.047910251058743
sS'english'
p3268
F5.692677268436912
sS'position'
p3269
F6.3959768204608745
sS'audio'
p3270
F6.941407973404341
sS'latest'
p3271
F9.700010453669382
sS'etrm'
p3272
F9.006863273109436
sS'stores'
p3273
F7.579746917469291
sS'negligence'
p3274
F8.090572541235282
sS'orthopaedic'
p3275
F7.6487397889562425
sS'hybrid'
p3276
F9.412328381217602
sS'executive'
p3277
F3.11047282256451
sS'domestic'
p3278
F6.559696951304283
sS'sourcer'
p3279
F6.934390400745694
sS'clinic'
p3280
F5.30008932911895
sS'interim'
p3281
F5.878641816509367
sS'voltage'
p3282
F8.719181200657657
sS'rapid'
p3283
F9.064021686949385
sS'console'
p3284
F9.700010453669382
sS'winchester'
p3285
F7.4905157837413485
sS'hants'
p3286
F8.463247826520455
sS'residential'
p3287
F5.694699513817679
sS'supply'
p3288
F5.467515552966464
sS'lake'
p3289
F8.761740815076452
sS'bench'
p3290
F8.85271259328218
sS'slinger'
p3291
F8.952796051839162
sS'adoption'
p3292
F8.496037649343446
sS'cosmetics'
p3293
F8.090572541235282
sS'propositions'
p3294
F9.006863273109436
sS'enfield'
p3295
F7.466418232162288
sS'smart'
p3296
F7.965409398281276
sS'css3'
p3297
F7.692542411614635
sS'recycling'
p3298
F8.37087450638944
sS'government'
p3299
F8.6783592061374
sS'entrepreneurial'
p3300
F9.499339758207231
sS'munich'
p3301
F9.412328381217602
sS'siemens'
p3302
F9.189184829903391
sS'haul'
p3303
F8.463247826520455
sS'multisite'
p3304
F9.189184829903391
sS'five'
p3305
F9.006863273109436
sS'know'
p3306
F8.208355576891664
sS'desk'
p3307
F5.3165958937206526
sS'press'
p3308
F6.476700031733316
sS'immediately'
p3309
F7.945991312424174
sS'loss'
p3310
F8.208355576891664
sS'dubai'
p3311
F7.620568911989547
sS'glazing'
p3312
F9.700010453669382
sS'necessary'
p3313
F8.208355576891664
sS'success'
p3314
F8.313716092549491
sS'housekeeper'
p3315
F7.51520839633172
sS'qualitative'
p3316
F8.806192577647286
sS'ordinator'
p3317
F4.351316879796278
sS'controllers'
p3318
F9.332285673544064
sS'crawley'
p3319
F7.663128526408342
sS'payments'
p3320
F7.692542411614635
sS'rota'
p3321
F8.719181200657657
sS'become'
p3322
F8.952796051839162
sS'works'
p3323
F5.828809442761491
sS'soft'
p3324
F3.753717625208121
sS'waltham'
p3325
F8.496037649343446
sS'italian'
p3326
F7.152302902642352
sS'actuarial'
p3327
F8.565030520830398
sS'setter'
p3328
F6.154231843196119
sS'church'
p3329
F8.159565412722234
sS'authority'
p3330
F8.183662964301293
sS'hair'
p3331
F7.663128526408342
sS'platforms'
p3332
F9.499339758207231
sS'sunderland'
p3333
F8.719181200657657
sS'growth'
p3334
F8.85271259328218
sS'export'
p3335
F6.991960252567172
sS'sheq'
p3336
F9.499339758207231
sS'dermatology'
p3337
F9.412328381217602
sS'home'
p3338
F4.148775007105905
sS'halifax'
p3339
F8.159565412722234
sS'employment'
p3340
F6.644961602958972
sS'transport'
p3341
F6.4990723294878485
sS'organisational'
p3342
F8.40072746953912
sS'gwent'
p3343
F9.700010453669382
sS'lead'
p3344
F3.584363636662986
sS'broad'
p3345
F7.466418232162288
sS'lean'
p3346
F4.907899765031042
sS'shelter'
p3347
F9.12464630876582
sS'passion'
p3348
F9.12464630876582
sS'therapists'
p3349
F9.332285673544064
sS'salaried'
p3350
F8.341886969516187
sS'chelmsford'
p3351
F7.332886839537765
sS'leader'
p3352
F4.5263748644688855
sS'biology'
p3353
F7.332886839537765
sS'noise'
p3354
F9.412328381217602
sS'handyperson'
p3355
F9.594649938011555
sS'domicilary'
p3356
F9.594649938011555
sS'pontefract'
p3357
F9.700010453669382
sS'taqa'
p3358
F8.90150275745161
sS'expansion'
p3359
F9.12464630876582
sS'paediatric'
p3360
F6.721085298431772
sS'pressure'
p3361
F8.341886969516187
sS'host'
p3362
F7.243274680848078
sS'loans'
p3363
F9.006863273109436
sS'slug'
p3364
F9.499339758207231
sS'counties'
p3365
F8.11304539708734
sS'panel'
p3366
F7.2528441318642285
sS'sister'
p3367
F7.322524052502219
sS'lifestyle'
p3368
F8.183662964301293
sS'engines'
p3369
F9.412328381217602
sS'godalming'
p3370
F9.189184829903391
sS'label'
p3371
F8.952796051839162
sS'shipping'
p3372
F8.208355576891664
sS'proposals'
p3373
F7.692542411614635
sS'carrier'
p3374
F8.565030520830398
sS'folkestone'
p3375
F9.332285673544064
sS'concession'
p3376
F8.047087429295543
sS'powerpoint'
p3377
F9.594649938011555
sS'workington'
p3378
F9.412328381217602
sS'executives'
p3379
F6.593930122946526
sS'warranty'
p3380
F8.529939201019127
sS'alliance'
p3381
F9.499339758207231
sS'childrens'
p3382
F7.045204767085984
sS'stansted'
p3383
F9.258177701390343
sS'planners'
p3384
F9.258177701390343
sS'functional'
p3385
F6.860282428591972
sS'umbraco'
p3386
F9.332285673544064
sS'fundraiser'
p3387
F6.545376897529535
sS'guard'
p3388
F7.397425360675337
sS'weekends'
p3389
F8.208355576891664
sS'stratford'
p3390
F8.068593634516507
sS'female'
p3391
F7.29206484501751
sS'roads'
p3392
F8.286317118361376
sS'owners'
p3393
F9.258177701390343
sS'negotiable'
p3394
F8.761740815076452
sS'utility'
p3395
F9.006863273109436
sS'northamptonshire'
p3396
F7.663128526408342
sS'networking'
p3397
F7.54052620431601
sS'additional'
p3398
F9.594649938011555
sS'adolescent'
p3399
F9.412328381217602
sS'formwork'
p3400
F9.594649938011555
sS'transfer'
p3401
F8.463247826520455
sS'housing'
p3402
F6.135183648225425
sS'apps'
p3403
F7.7383519476459295
sS'redditch'
p3404
F9.499339758207231
sS'hrms'
p3405
F9.499339758207231
sS'continental'
p3406
F9.594649938011555
sS'overtime'
p3407
F8.90150275745161
sS'accountant'
p3408
F4.176329779068823
sS'airline'
p3409
F8.90150275745161
sS'inner'
p3410
F8.63913849298412
sS'groomer'
p3411
F9.12464630876582
sS'exposure'
p3412
F9.12464630876582
sS'function'
p3413
F6.767336316082528
sS'north'
p3414
F4.882420679730057
sS'ireland'
p3415
F7.397425360675337
sS'insurer'
p3416
F9.412328381217602
sS'funds'
p3417
F8.313716092549491
sS'brand'
p3418
F5.043935937819523
sS'wirral'
p3419
F8.529939201019127
sS'locations'
p3420
F8.313716092549491
sS'volume'
p3421
F7.466418232162288
sS'shields'
p3422
F8.565030520830398
sS'wight'
p3423
F8.85271259328218
sS'construction'
p3424
F5.8859678566014395
sS'gain'
p3425
F8.313716092549491
sS'automated'
p3426
F7.707580288979176
sS'technician'
p3427
F4.183897142133731
sS'domiciliary'
p3428
F6.3678059434941785
sS'valuation'
p3429
F7.7383519476459295
sS'lynn'
p3430
F9.006863273109436
sS'made'
p3431
F8.286317118361376
sS'itil'
p3432
F7.60677558985721
sS'temp'
p3433
F5.370740171434812
sS'heor'
p3434
F9.499339758207231
sS'lync'
p3435
F8.341886969516187
sS'hosting'
p3436
F7.871883340270452
sS'record'
p3437
F8.159565412722234
sS'wolverhampton'
p3438
F7.7863611668322905
sS'fabricator'
p3439
F7.060953124054124
sS'distribution'
p3440
F7.2528441318642285
sS'spectrometry'
p3441
F9.499339758207231
sS'display'
p3442
F8.13603491531204
sS'mechanics'
p3443
F8.6783592061374
sS'hvac'
p3444
F7.553429609151918
sS'nurses'
p3445
F5.913298750318411
sS'reservations'
p3446
F7.161036582611106
sS'kingston'
p3447
F8.068593634516507
sS'weston'
p3448
F8.806192577647286
sS'evesham'
p3449
F9.700010453669382
sS'abbot'
p3450
F9.412328381217602
sS'education'
p3451
F6.019499249225962
sS'benelux'
p3452
F9.594649938011555
sS'autism'
p3453
F8.208355576891664
sS'renowned'
p3454
F9.189184829903391
sS'calibration'
p3455
F8.463247826520455
sS'trials'
p3456
F8.806192577647286
sS'tailoring'
p3457
F9.700010453669382
sS'virtual'
p3458
F7.836792020459182
sS'peoplesoft'
p3459
F9.412328381217602
sS'westminster'
p3460
F8.806192577647286
sS'book'
p3461
F6.603930206281109
sS'branch'
p3462
F5.856980319728187
sS'chemist'
p3463
F6.676879205927277
sS'pupil'
p3464
F8.63913849298412
sS'star'
p3465
F4.755198456298799
sS'havant'
p3466
F9.700010453669382
sS'monday'
p3467
F8.208355576891664
sS'apparel'
p3468
F9.499339758207231
sS'pumps'
p3469
F8.313716092549491
sS'seismic'
p3470
F9.700010453669382
sS'overseas'
p3471
F9.258177701390343
sS'trowbridge'
p3472
F8.529939201019127
sS'parttime'
p3473
F6.459155722082406
sS'auxiliary'
p3474
F9.499339758207231
sS'barista'
p3475
F9.258177701390343
sS'starting'
p3476
F9.189184829903391
sS'baker'
p3477
F7.836792020459182
sS'factors'
p3478
F9.189184829903391
sS'lift'
p3479
F6.715451480713517
sS'pension'
p3480
F6.273217524818263
sS'rural'
p3481
F9.499339758207231
sS'validation'
p3482
F7.620568911989547
sS'frankfurt'
p3483
F9.412328381217602
sS'ssas'
p3484
F7.836792020459182
sS'liver'
p3485
F5.360543433414296
s.